
ctarget:     file format elf64-x86-64


Disassembly of section .init:

0000000000400d68 <_init>:
  400d68:	48 83 ec 08          	sub    $0x8,%rsp
  400d6c:	48 8b 05 85 42 20 00 	mov    0x204285(%rip),%rax        # 604ff8 <_DYNAMIC+0x1d0>
  400d73:	48 85 c0             	test   %rax,%rax
  400d76:	74 05                	je     400d7d <_init+0x15>
  400d78:	e8 93 02 00 00       	callq  401010 <socket@plt+0x10>
  400d7d:	48 83 c4 08          	add    $0x8,%rsp
  400d81:	c3                   	retq   

Disassembly of section .plt:

0000000000400d90 <__strcat_chk@plt-0x10>:
  400d90:	ff 35 72 42 20 00    	pushq  0x204272(%rip)        # 605008 <_GLOBAL_OFFSET_TABLE_+0x8>
  400d96:	ff 25 74 42 20 00    	jmpq   *0x204274(%rip)        # 605010 <_GLOBAL_OFFSET_TABLE_+0x10>
  400d9c:	0f 1f 40 00          	nopl   0x0(%rax)

0000000000400da0 <__strcat_chk@plt>:
  400da0:	ff 25 72 42 20 00    	jmpq   *0x204272(%rip)        # 605018 <_GLOBAL_OFFSET_TABLE_+0x18>
  400da6:	68 00 00 00 00       	pushq  $0x0
  400dab:	e9 e0 ff ff ff       	jmpq   400d90 <_init+0x28>

0000000000400db0 <strcasecmp@plt>:
  400db0:	ff 25 6a 42 20 00    	jmpq   *0x20426a(%rip)        # 605020 <_GLOBAL_OFFSET_TABLE_+0x20>
  400db6:	68 01 00 00 00       	pushq  $0x1
  400dbb:	e9 d0 ff ff ff       	jmpq   400d90 <_init+0x28>

0000000000400dc0 <__errno_location@plt>:
  400dc0:	ff 25 62 42 20 00    	jmpq   *0x204262(%rip)        # 605028 <_GLOBAL_OFFSET_TABLE_+0x28>
  400dc6:	68 02 00 00 00       	pushq  $0x2
  400dcb:	e9 c0 ff ff ff       	jmpq   400d90 <_init+0x28>

0000000000400dd0 <srandom@plt>:
  400dd0:	ff 25 5a 42 20 00    	jmpq   *0x20425a(%rip)        # 605030 <_GLOBAL_OFFSET_TABLE_+0x30>
  400dd6:	68 03 00 00 00       	pushq  $0x3
  400ddb:	e9 b0 ff ff ff       	jmpq   400d90 <_init+0x28>

0000000000400de0 <strncmp@plt>:
  400de0:	ff 25 52 42 20 00    	jmpq   *0x204252(%rip)        # 605038 <_GLOBAL_OFFSET_TABLE_+0x38>
  400de6:	68 04 00 00 00       	pushq  $0x4
  400deb:	e9 a0 ff ff ff       	jmpq   400d90 <_init+0x28>

0000000000400df0 <strcpy@plt>:
  400df0:	ff 25 4a 42 20 00    	jmpq   *0x20424a(%rip)        # 605040 <_GLOBAL_OFFSET_TABLE_+0x40>
  400df6:	68 05 00 00 00       	pushq  $0x5
  400dfb:	e9 90 ff ff ff       	jmpq   400d90 <_init+0x28>

0000000000400e00 <puts@plt>:
  400e00:	ff 25 42 42 20 00    	jmpq   *0x204242(%rip)        # 605048 <_GLOBAL_OFFSET_TABLE_+0x48>
  400e06:	68 06 00 00 00       	pushq  $0x6
  400e0b:	e9 80 ff ff ff       	jmpq   400d90 <_init+0x28>

0000000000400e10 <write@plt>:
  400e10:	ff 25 3a 42 20 00    	jmpq   *0x20423a(%rip)        # 605050 <_GLOBAL_OFFSET_TABLE_+0x50>
  400e16:	68 07 00 00 00       	pushq  $0x7
  400e1b:	e9 70 ff ff ff       	jmpq   400d90 <_init+0x28>

0000000000400e20 <__stack_chk_fail@plt>:
  400e20:	ff 25 32 42 20 00    	jmpq   *0x204232(%rip)        # 605058 <_GLOBAL_OFFSET_TABLE_+0x58>
  400e26:	68 08 00 00 00       	pushq  $0x8
  400e2b:	e9 60 ff ff ff       	jmpq   400d90 <_init+0x28>

0000000000400e30 <mmap@plt>:
  400e30:	ff 25 2a 42 20 00    	jmpq   *0x20422a(%rip)        # 605060 <_GLOBAL_OFFSET_TABLE_+0x60>
  400e36:	68 09 00 00 00       	pushq  $0x9
  400e3b:	e9 50 ff ff ff       	jmpq   400d90 <_init+0x28>

0000000000400e40 <memset@plt>:
  400e40:	ff 25 22 42 20 00    	jmpq   *0x204222(%rip)        # 605068 <_GLOBAL_OFFSET_TABLE_+0x68>
  400e46:	68 0a 00 00 00       	pushq  $0xa
  400e4b:	e9 40 ff ff ff       	jmpq   400d90 <_init+0x28>

0000000000400e50 <alarm@plt>:
  400e50:	ff 25 1a 42 20 00    	jmpq   *0x20421a(%rip)        # 605070 <_GLOBAL_OFFSET_TABLE_+0x70>
  400e56:	68 0b 00 00 00       	pushq  $0xb
  400e5b:	e9 30 ff ff ff       	jmpq   400d90 <_init+0x28>

0000000000400e60 <close@plt>:
  400e60:	ff 25 12 42 20 00    	jmpq   *0x204212(%rip)        # 605078 <_GLOBAL_OFFSET_TABLE_+0x78>
  400e66:	68 0c 00 00 00       	pushq  $0xc
  400e6b:	e9 20 ff ff ff       	jmpq   400d90 <_init+0x28>

0000000000400e70 <read@plt>:
  400e70:	ff 25 0a 42 20 00    	jmpq   *0x20420a(%rip)        # 605080 <_GLOBAL_OFFSET_TABLE_+0x80>
  400e76:	68 0d 00 00 00       	pushq  $0xd
  400e7b:	e9 10 ff ff ff       	jmpq   400d90 <_init+0x28>

0000000000400e80 <__libc_start_main@plt>:
  400e80:	ff 25 02 42 20 00    	jmpq   *0x204202(%rip)        # 605088 <_GLOBAL_OFFSET_TABLE_+0x88>
  400e86:	68 0e 00 00 00       	pushq  $0xe
  400e8b:	e9 00 ff ff ff       	jmpq   400d90 <_init+0x28>

0000000000400e90 <strcmp@plt>:
  400e90:	ff 25 fa 41 20 00    	jmpq   *0x2041fa(%rip)        # 605090 <_GLOBAL_OFFSET_TABLE_+0x90>
  400e96:	68 0f 00 00 00       	pushq  $0xf
  400e9b:	e9 f0 fe ff ff       	jmpq   400d90 <_init+0x28>

0000000000400ea0 <signal@plt>:
  400ea0:	ff 25 f2 41 20 00    	jmpq   *0x2041f2(%rip)        # 605098 <_GLOBAL_OFFSET_TABLE_+0x98>
  400ea6:	68 10 00 00 00       	pushq  $0x10
  400eab:	e9 e0 fe ff ff       	jmpq   400d90 <_init+0x28>

0000000000400eb0 <gethostbyname@plt>:
  400eb0:	ff 25 ea 41 20 00    	jmpq   *0x2041ea(%rip)        # 6050a0 <_GLOBAL_OFFSET_TABLE_+0xa0>
  400eb6:	68 11 00 00 00       	pushq  $0x11
  400ebb:	e9 d0 fe ff ff       	jmpq   400d90 <_init+0x28>

0000000000400ec0 <__memmove_chk@plt>:
  400ec0:	ff 25 e2 41 20 00    	jmpq   *0x2041e2(%rip)        # 6050a8 <_GLOBAL_OFFSET_TABLE_+0xa8>
  400ec6:	68 12 00 00 00       	pushq  $0x12
  400ecb:	e9 c0 fe ff ff       	jmpq   400d90 <_init+0x28>

0000000000400ed0 <strtol@plt>:
  400ed0:	ff 25 da 41 20 00    	jmpq   *0x2041da(%rip)        # 6050b0 <_GLOBAL_OFFSET_TABLE_+0xb0>
  400ed6:	68 13 00 00 00       	pushq  $0x13
  400edb:	e9 b0 fe ff ff       	jmpq   400d90 <_init+0x28>

0000000000400ee0 <memcpy@plt>:
  400ee0:	ff 25 d2 41 20 00    	jmpq   *0x2041d2(%rip)        # 6050b8 <_GLOBAL_OFFSET_TABLE_+0xb8>
  400ee6:	68 14 00 00 00       	pushq  $0x14
  400eeb:	e9 a0 fe ff ff       	jmpq   400d90 <_init+0x28>

0000000000400ef0 <time@plt>:
  400ef0:	ff 25 ca 41 20 00    	jmpq   *0x2041ca(%rip)        # 6050c0 <_GLOBAL_OFFSET_TABLE_+0xc0>
  400ef6:	68 15 00 00 00       	pushq  $0x15
  400efb:	e9 90 fe ff ff       	jmpq   400d90 <_init+0x28>

0000000000400f00 <random@plt>:
  400f00:	ff 25 c2 41 20 00    	jmpq   *0x2041c2(%rip)        # 6050c8 <_GLOBAL_OFFSET_TABLE_+0xc8>
  400f06:	68 16 00 00 00       	pushq  $0x16
  400f0b:	e9 80 fe ff ff       	jmpq   400d90 <_init+0x28>

0000000000400f10 <_IO_getc@plt>:
  400f10:	ff 25 ba 41 20 00    	jmpq   *0x2041ba(%rip)        # 6050d0 <_GLOBAL_OFFSET_TABLE_+0xd0>
  400f16:	68 17 00 00 00       	pushq  $0x17
  400f1b:	e9 70 fe ff ff       	jmpq   400d90 <_init+0x28>

0000000000400f20 <__isoc99_sscanf@plt>:
  400f20:	ff 25 b2 41 20 00    	jmpq   *0x2041b2(%rip)        # 6050d8 <_GLOBAL_OFFSET_TABLE_+0xd8>
  400f26:	68 18 00 00 00       	pushq  $0x18
  400f2b:	e9 60 fe ff ff       	jmpq   400d90 <_init+0x28>

0000000000400f30 <munmap@plt>:
  400f30:	ff 25 aa 41 20 00    	jmpq   *0x2041aa(%rip)        # 6050e0 <_GLOBAL_OFFSET_TABLE_+0xe0>
  400f36:	68 19 00 00 00       	pushq  $0x19
  400f3b:	e9 50 fe ff ff       	jmpq   400d90 <_init+0x28>

0000000000400f40 <__printf_chk@plt>:
  400f40:	ff 25 a2 41 20 00    	jmpq   *0x2041a2(%rip)        # 6050e8 <_GLOBAL_OFFSET_TABLE_+0xe8>
  400f46:	68 1a 00 00 00       	pushq  $0x1a
  400f4b:	e9 40 fe ff ff       	jmpq   400d90 <_init+0x28>

0000000000400f50 <fopen@plt>:
  400f50:	ff 25 9a 41 20 00    	jmpq   *0x20419a(%rip)        # 6050f0 <_GLOBAL_OFFSET_TABLE_+0xf0>
  400f56:	68 1b 00 00 00       	pushq  $0x1b
  400f5b:	e9 30 fe ff ff       	jmpq   400d90 <_init+0x28>

0000000000400f60 <getopt@plt>:
  400f60:	ff 25 92 41 20 00    	jmpq   *0x204192(%rip)        # 6050f8 <_GLOBAL_OFFSET_TABLE_+0xf8>
  400f66:	68 1c 00 00 00       	pushq  $0x1c
  400f6b:	e9 20 fe ff ff       	jmpq   400d90 <_init+0x28>

0000000000400f70 <strtoul@plt>:
  400f70:	ff 25 8a 41 20 00    	jmpq   *0x20418a(%rip)        # 605100 <_GLOBAL_OFFSET_TABLE_+0x100>
  400f76:	68 1d 00 00 00       	pushq  $0x1d
  400f7b:	e9 10 fe ff ff       	jmpq   400d90 <_init+0x28>

0000000000400f80 <atoi@plt>:
  400f80:	ff 25 82 41 20 00    	jmpq   *0x204182(%rip)        # 605108 <_GLOBAL_OFFSET_TABLE_+0x108>
  400f86:	68 1e 00 00 00       	pushq  $0x1e
  400f8b:	e9 00 fe ff ff       	jmpq   400d90 <_init+0x28>

0000000000400f90 <gethostname@plt>:
  400f90:	ff 25 7a 41 20 00    	jmpq   *0x20417a(%rip)        # 605110 <_GLOBAL_OFFSET_TABLE_+0x110>
  400f96:	68 1f 00 00 00       	pushq  $0x1f
  400f9b:	e9 f0 fd ff ff       	jmpq   400d90 <_init+0x28>

0000000000400fa0 <sprintf@plt>:
  400fa0:	ff 25 72 41 20 00    	jmpq   *0x204172(%rip)        # 605118 <_GLOBAL_OFFSET_TABLE_+0x118>
  400fa6:	68 20 00 00 00       	pushq  $0x20
  400fab:	e9 e0 fd ff ff       	jmpq   400d90 <_init+0x28>

0000000000400fb0 <exit@plt>:
  400fb0:	ff 25 6a 41 20 00    	jmpq   *0x20416a(%rip)        # 605120 <_GLOBAL_OFFSET_TABLE_+0x120>
  400fb6:	68 21 00 00 00       	pushq  $0x21
  400fbb:	e9 d0 fd ff ff       	jmpq   400d90 <_init+0x28>

0000000000400fc0 <connect@plt>:
  400fc0:	ff 25 62 41 20 00    	jmpq   *0x204162(%rip)        # 605128 <_GLOBAL_OFFSET_TABLE_+0x128>
  400fc6:	68 22 00 00 00       	pushq  $0x22
  400fcb:	e9 c0 fd ff ff       	jmpq   400d90 <_init+0x28>

0000000000400fd0 <__fprintf_chk@plt>:
  400fd0:	ff 25 5a 41 20 00    	jmpq   *0x20415a(%rip)        # 605130 <_GLOBAL_OFFSET_TABLE_+0x130>
  400fd6:	68 23 00 00 00       	pushq  $0x23
  400fdb:	e9 b0 fd ff ff       	jmpq   400d90 <_init+0x28>

0000000000400fe0 <strstr@plt>:
  400fe0:	ff 25 52 41 20 00    	jmpq   *0x204152(%rip)        # 605138 <_GLOBAL_OFFSET_TABLE_+0x138>
  400fe6:	68 24 00 00 00       	pushq  $0x24
  400feb:	e9 a0 fd ff ff       	jmpq   400d90 <_init+0x28>

0000000000400ff0 <__sprintf_chk@plt>:
  400ff0:	ff 25 4a 41 20 00    	jmpq   *0x20414a(%rip)        # 605140 <_GLOBAL_OFFSET_TABLE_+0x140>
  400ff6:	68 25 00 00 00       	pushq  $0x25
  400ffb:	e9 90 fd ff ff       	jmpq   400d90 <_init+0x28>

0000000000401000 <socket@plt>:
  401000:	ff 25 42 41 20 00    	jmpq   *0x204142(%rip)        # 605148 <_GLOBAL_OFFSET_TABLE_+0x148>
  401006:	68 26 00 00 00       	pushq  $0x26
  40100b:	e9 80 fd ff ff       	jmpq   400d90 <_init+0x28>

Disassembly of section .plt.got:

0000000000401010 <.plt.got>:
  401010:	ff 25 e2 3f 20 00    	jmpq   *0x203fe2(%rip)        # 604ff8 <_DYNAMIC+0x1d0>
  401016:	66 90                	xchg   %ax,%ax

Disassembly of section .text:

0000000000401020 <_start>:
  401020:	31 ed                	xor    %ebp,%ebp
  401022:	49 89 d1             	mov    %rdx,%r9
  401025:	5e                   	pop    %rsi
  401026:	48 89 e2             	mov    %rsp,%rdx
  401029:	48 83 e4 f0          	and    $0xfffffffffffffff0,%rsp
  40102d:	50                   	push   %rax
  40102e:	54                   	push   %rsp
  40102f:	49 c7 c0 50 34 40 00 	mov    $0x403450,%r8
  401036:	48 c7 c1 e0 33 40 00 	mov    $0x4033e0,%rcx
  40103d:	48 c7 c7 f9 12 40 00 	mov    $0x4012f9,%rdi
  401044:	e8 37 fe ff ff       	callq  400e80 <__libc_start_main@plt>
  401049:	f4                   	hlt    
  40104a:	66 0f 1f 44 00 00    	nopw   0x0(%rax,%rax,1)

0000000000401050 <deregister_tm_clones>:
  401050:	b8 97 51 60 00       	mov    $0x605197,%eax
  401055:	55                   	push   %rbp
  401056:	48 2d 90 51 60 00    	sub    $0x605190,%rax
  40105c:	48 83 f8 0e          	cmp    $0xe,%rax
  401060:	48 89 e5             	mov    %rsp,%rbp
  401063:	76 1b                	jbe    401080 <deregister_tm_clones+0x30>
  401065:	b8 00 00 00 00       	mov    $0x0,%eax
  40106a:	48 85 c0             	test   %rax,%rax
  40106d:	74 11                	je     401080 <deregister_tm_clones+0x30>
  40106f:	5d                   	pop    %rbp
  401070:	bf 90 51 60 00       	mov    $0x605190,%edi
  401075:	ff e0                	jmpq   *%rax
  401077:	66 0f 1f 84 00 00 00 	nopw   0x0(%rax,%rax,1)
  40107e:	00 00 
  401080:	5d                   	pop    %rbp
  401081:	c3                   	retq   
  401082:	0f 1f 40 00          	nopl   0x0(%rax)
  401086:	66 2e 0f 1f 84 00 00 	nopw   %cs:0x0(%rax,%rax,1)
  40108d:	00 00 00 

0000000000401090 <register_tm_clones>:
  401090:	be 90 51 60 00       	mov    $0x605190,%esi
  401095:	55                   	push   %rbp
  401096:	48 81 ee 90 51 60 00 	sub    $0x605190,%rsi
  40109d:	48 c1 fe 03          	sar    $0x3,%rsi
  4010a1:	48 89 e5             	mov    %rsp,%rbp
  4010a4:	48 89 f0             	mov    %rsi,%rax
  4010a7:	48 c1 e8 3f          	shr    $0x3f,%rax
  4010ab:	48 01 c6             	add    %rax,%rsi
  4010ae:	48 d1 fe             	sar    %rsi
  4010b1:	74 15                	je     4010c8 <register_tm_clones+0x38>
  4010b3:	b8 00 00 00 00       	mov    $0x0,%eax
  4010b8:	48 85 c0             	test   %rax,%rax
  4010bb:	74 0b                	je     4010c8 <register_tm_clones+0x38>
  4010bd:	5d                   	pop    %rbp
  4010be:	bf 90 51 60 00       	mov    $0x605190,%edi
  4010c3:	ff e0                	jmpq   *%rax
  4010c5:	0f 1f 00             	nopl   (%rax)
  4010c8:	5d                   	pop    %rbp
  4010c9:	c3                   	retq   
  4010ca:	66 0f 1f 44 00 00    	nopw   0x0(%rax,%rax,1)

00000000004010d0 <__do_global_dtors_aux>:
  4010d0:	80 3d f1 40 20 00 00 	cmpb   $0x0,0x2040f1(%rip)        # 6051c8 <completed.7594>
  4010d7:	75 11                	jne    4010ea <__do_global_dtors_aux+0x1a>
  4010d9:	55                   	push   %rbp
  4010da:	48 89 e5             	mov    %rsp,%rbp
  4010dd:	e8 6e ff ff ff       	callq  401050 <deregister_tm_clones>
  4010e2:	5d                   	pop    %rbp
  4010e3:	c6 05 de 40 20 00 01 	movb   $0x1,0x2040de(%rip)        # 6051c8 <completed.7594>
  4010ea:	f3 c3                	repz retq 
  4010ec:	0f 1f 40 00          	nopl   0x0(%rax)

00000000004010f0 <frame_dummy>:
  4010f0:	bf 20 4e 60 00       	mov    $0x604e20,%edi
  4010f5:	48 83 3f 00          	cmpq   $0x0,(%rdi)
  4010f9:	75 05                	jne    401100 <frame_dummy+0x10>
  4010fb:	eb 93                	jmp    401090 <register_tm_clones>
  4010fd:	0f 1f 00             	nopl   (%rax)
  401100:	b8 00 00 00 00       	mov    $0x0,%eax
  401105:	48 85 c0             	test   %rax,%rax
  401108:	74 f1                	je     4010fb <frame_dummy+0xb>
  40110a:	55                   	push   %rbp
  40110b:	48 89 e5             	mov    %rsp,%rbp
  40110e:	ff d0                	callq  *%rax
  401110:	5d                   	pop    %rbp
  401111:	e9 7a ff ff ff       	jmpq   401090 <register_tm_clones>

0000000000401116 <usage>:
  401116:	48 83 ec 08          	sub    $0x8,%rsp
  40111a:	48 89 fa             	mov    %rdi,%rdx
  40111d:	83 3d e4 40 20 00 00 	cmpl   $0x0,0x2040e4(%rip)        # 605208 <is_checker>
  401124:	74 3e                	je     401164 <usage+0x4e>
  401126:	be 68 34 40 00       	mov    $0x403468,%esi
  40112b:	bf 01 00 00 00       	mov    $0x1,%edi
  401130:	b8 00 00 00 00       	mov    $0x0,%eax
  401135:	e8 06 fe ff ff       	callq  400f40 <__printf_chk@plt>
  40113a:	bf a0 34 40 00       	mov    $0x4034a0,%edi
  40113f:	e8 bc fc ff ff       	callq  400e00 <puts@plt>
  401144:	bf d8 35 40 00       	mov    $0x4035d8,%edi
  401149:	e8 b2 fc ff ff       	callq  400e00 <puts@plt>
  40114e:	bf c8 34 40 00       	mov    $0x4034c8,%edi
  401153:	e8 a8 fc ff ff       	callq  400e00 <puts@plt>
  401158:	bf f2 35 40 00       	mov    $0x4035f2,%edi
  40115d:	e8 9e fc ff ff       	callq  400e00 <puts@plt>
  401162:	eb 32                	jmp    401196 <usage+0x80>
  401164:	be 0e 36 40 00       	mov    $0x40360e,%esi
  401169:	bf 01 00 00 00       	mov    $0x1,%edi
  40116e:	b8 00 00 00 00       	mov    $0x0,%eax
  401173:	e8 c8 fd ff ff       	callq  400f40 <__printf_chk@plt>
  401178:	bf f0 34 40 00       	mov    $0x4034f0,%edi
  40117d:	e8 7e fc ff ff       	callq  400e00 <puts@plt>
  401182:	bf 18 35 40 00       	mov    $0x403518,%edi
  401187:	e8 74 fc ff ff       	callq  400e00 <puts@plt>
  40118c:	bf 2c 36 40 00       	mov    $0x40362c,%edi
  401191:	e8 6a fc ff ff       	callq  400e00 <puts@plt>
  401196:	bf 00 00 00 00       	mov    $0x0,%edi
  40119b:	e8 10 fe ff ff       	callq  400fb0 <exit@plt>

00000000004011a0 <initialize_target>:
  4011a0:	55                   	push   %rbp
  4011a1:	53                   	push   %rbx
  4011a2:	48 81 ec 18 21 00 00 	sub    $0x2118,%rsp
  4011a9:	89 f5                	mov    %esi,%ebp
  4011ab:	64 48 8b 04 25 28 00 	mov    %fs:0x28,%rax
  4011b2:	00 00 
  4011b4:	48 89 84 24 08 21 00 	mov    %rax,0x2108(%rsp)
  4011bb:	00 
  4011bc:	31 c0                	xor    %eax,%eax
  4011be:	89 3d 34 40 20 00    	mov    %edi,0x204034(%rip)        # 6051f8 <check_level>
  4011c4:	8b 3d 9e 3f 20 00    	mov    0x203f9e(%rip),%edi        # 605168 <target_id>
  4011ca:	e8 ed 21 00 00       	callq  4033bc <make_magic>
  4011cf:	89 05 2f 40 20 00    	mov    %eax,0x20402f(%rip)        # 605204 <magic>
  4011d5:	89 c7                	mov    %eax,%edi
  4011d7:	e8 e0 21 00 00       	callq  4033bc <make_magic>
  4011dc:	89 05 1e 40 20 00    	mov    %eax,0x20401e(%rip)        # 605200 <authkey>
  4011e2:	8b 05 80 3f 20 00    	mov    0x203f80(%rip),%eax        # 605168 <target_id>
  4011e8:	8d 78 01             	lea    0x1(%rax),%edi
  4011eb:	e8 e0 fb ff ff       	callq  400dd0 <srandom@plt>
  4011f0:	e8 0b fd ff ff       	callq  400f00 <random@plt>
  4011f5:	89 c7                	mov    %eax,%edi
  4011f7:	e8 c7 02 00 00       	callq  4014c3 <scramble>
  4011fc:	89 c3                	mov    %eax,%ebx
  4011fe:	85 ed                	test   %ebp,%ebp
  401200:	74 18                	je     40121a <initialize_target+0x7a>
  401202:	bf 00 00 00 00       	mov    $0x0,%edi
  401207:	e8 e4 fc ff ff       	callq  400ef0 <time@plt>
  40120c:	89 c7                	mov    %eax,%edi
  40120e:	e8 bd fb ff ff       	callq  400dd0 <srandom@plt>
  401213:	e8 e8 fc ff ff       	callq  400f00 <random@plt>
  401218:	eb 05                	jmp    40121f <initialize_target+0x7f>
  40121a:	b8 00 00 00 00       	mov    $0x0,%eax
  40121f:	01 c3                	add    %eax,%ebx
  401221:	0f b7 db             	movzwl %bx,%ebx
  401224:	8d 04 dd 00 01 00 00 	lea    0x100(,%rbx,8),%eax
  40122b:	89 c0                	mov    %eax,%eax
  40122d:	48 89 05 4c 3f 20 00 	mov    %rax,0x203f4c(%rip)        # 605180 <buf_offset>
  401234:	c6 05 05 4c 20 00 63 	movb   $0x63,0x204c05(%rip)        # 605e40 <target_prefix>
  40123b:	83 3d 46 3f 20 00 00 	cmpl   $0x0,0x203f46(%rip)        # 605188 <notify>
  401242:	0f 84 8f 00 00 00    	je     4012d7 <initialize_target+0x137>
  401248:	83 3d b9 3f 20 00 00 	cmpl   $0x0,0x203fb9(%rip)        # 605208 <is_checker>
  40124f:	0f 85 82 00 00 00    	jne    4012d7 <initialize_target+0x137>
  401255:	be 00 01 00 00       	mov    $0x100,%esi
  40125a:	48 89 e7             	mov    %rsp,%rdi
  40125d:	e8 2e fd ff ff       	callq  400f90 <gethostname@plt>
  401262:	85 c0                	test   %eax,%eax
  401264:	74 25                	je     40128b <initialize_target+0xeb>
  401266:	bf 48 35 40 00       	mov    $0x403548,%edi
  40126b:	e8 90 fb ff ff       	callq  400e00 <puts@plt>
  401270:	bf 08 00 00 00       	mov    $0x8,%edi
  401275:	e8 36 fd ff ff       	callq  400fb0 <exit@plt>
  40127a:	48 89 e6             	mov    %rsp,%rsi
  40127d:	e8 2e fb ff ff       	callq  400db0 <strcasecmp@plt>
  401282:	85 c0                	test   %eax,%eax
  401284:	74 1a                	je     4012a0 <initialize_target+0x100>
  401286:	83 c3 01             	add    $0x1,%ebx
  401289:	eb 05                	jmp    401290 <initialize_target+0xf0>
  40128b:	bb 00 00 00 00       	mov    $0x0,%ebx
  401290:	48 63 c3             	movslq %ebx,%rax
  401293:	48 8b 3c c5 60 5e 60 	mov    0x605e60(,%rax,8),%rdi
  40129a:	00 
  40129b:	48 85 ff             	test   %rdi,%rdi
  40129e:	75 da                	jne    40127a <initialize_target+0xda>
  4012a0:	48 8d bc 24 00 01 00 	lea    0x100(%rsp),%rdi
  4012a7:	00 
  4012a8:	e8 7c 1e 00 00       	callq  403129 <init_driver>
  4012ad:	85 c0                	test   %eax,%eax
  4012af:	79 26                	jns    4012d7 <initialize_target+0x137>
  4012b1:	48 8d 94 24 00 01 00 	lea    0x100(%rsp),%rdx
  4012b8:	00 
  4012b9:	be 80 35 40 00       	mov    $0x403580,%esi
  4012be:	bf 01 00 00 00       	mov    $0x1,%edi
  4012c3:	b8 00 00 00 00       	mov    $0x0,%eax
  4012c8:	e8 73 fc ff ff       	callq  400f40 <__printf_chk@plt>
  4012cd:	bf 08 00 00 00       	mov    $0x8,%edi
  4012d2:	e8 d9 fc ff ff       	callq  400fb0 <exit@plt>
  4012d7:	48 8b 84 24 08 21 00 	mov    0x2108(%rsp),%rax
  4012de:	00 
  4012df:	64 48 33 04 25 28 00 	xor    %fs:0x28,%rax
  4012e6:	00 00 
  4012e8:	74 05                	je     4012ef <initialize_target+0x14f>
  4012ea:	e8 31 fb ff ff       	callq  400e20 <__stack_chk_fail@plt>
  4012ef:	48 81 c4 18 21 00 00 	add    $0x2118,%rsp
  4012f6:	5b                   	pop    %rbx
  4012f7:	5d                   	pop    %rbp
  4012f8:	c3                   	retq   

00000000004012f9 <main>:
  4012f9:	41 56                	push   %r14
  4012fb:	41 55                	push   %r13
  4012fd:	41 54                	push   %r12
  4012ff:	55                   	push   %rbp
  401300:	53                   	push   %rbx
  401301:	41 89 fc             	mov    %edi,%r12d
  401304:	48 89 f3             	mov    %rsi,%rbx
  401307:	b8 00 00 00 00       	mov    $0x0,%eax
  40130c:	e8 ec 06 00 00       	callq  4019fd <calcLastFive>
  401311:	be c7 20 40 00       	mov    $0x4020c7,%esi
  401316:	bf 0b 00 00 00       	mov    $0xb,%edi
  40131b:	e8 80 fb ff ff       	callq  400ea0 <signal@plt>
  401320:	be 79 20 40 00       	mov    $0x402079,%esi
  401325:	bf 07 00 00 00       	mov    $0x7,%edi
  40132a:	e8 71 fb ff ff       	callq  400ea0 <signal@plt>
  40132f:	be 06 21 40 00       	mov    $0x402106,%esi
  401334:	bf 04 00 00 00       	mov    $0x4,%edi
  401339:	e8 62 fb ff ff       	callq  400ea0 <signal@plt>
  40133e:	83 3d c3 3e 20 00 00 	cmpl   $0x0,0x203ec3(%rip)        # 605208 <is_checker>
  401345:	74 20                	je     401367 <main+0x6e>
  401347:	be 54 21 40 00       	mov    $0x402154,%esi
  40134c:	bf 0e 00 00 00       	mov    $0xe,%edi
  401351:	e8 4a fb ff ff       	callq  400ea0 <signal@plt>
  401356:	bf 05 00 00 00       	mov    $0x5,%edi
  40135b:	e8 f0 fa ff ff       	callq  400e50 <alarm@plt>
  401360:	bd 4a 36 40 00       	mov    $0x40364a,%ebp
  401365:	eb 05                	jmp    40136c <main+0x73>
  401367:	bd 45 36 40 00       	mov    $0x403645,%ebp
  40136c:	48 8b 05 2d 3e 20 00 	mov    0x203e2d(%rip),%rax        # 6051a0 <stdin@@GLIBC_2.2.5>
  401373:	48 89 05 76 3e 20 00 	mov    %rax,0x203e76(%rip)        # 6051f0 <infile>
  40137a:	41 bd 00 00 00 00    	mov    $0x0,%r13d
  401380:	41 be 00 00 00 00    	mov    $0x0,%r14d
  401386:	e9 c6 00 00 00       	jmpq   401451 <main+0x158>
  40138b:	83 e8 61             	sub    $0x61,%eax
  40138e:	3c 10                	cmp    $0x10,%al
  401390:	0f 87 9c 00 00 00    	ja     401432 <main+0x139>
  401396:	0f b6 c0             	movzbl %al,%eax
  401399:	ff 24 c5 88 36 40 00 	jmpq   *0x403688(,%rax,8)
  4013a0:	48 8b 3b             	mov    (%rbx),%rdi
  4013a3:	e8 6e fd ff ff       	callq  401116 <usage>
  4013a8:	be c1 38 40 00       	mov    $0x4038c1,%esi
  4013ad:	48 8b 3d f4 3d 20 00 	mov    0x203df4(%rip),%rdi        # 6051a8 <optarg@@GLIBC_2.2.5>
  4013b4:	e8 97 fb ff ff       	callq  400f50 <fopen@plt>
  4013b9:	48 89 05 30 3e 20 00 	mov    %rax,0x203e30(%rip)        # 6051f0 <infile>
  4013c0:	48 85 c0             	test   %rax,%rax
  4013c3:	0f 85 88 00 00 00    	jne    401451 <main+0x158>
  4013c9:	48 8b 0d d8 3d 20 00 	mov    0x203dd8(%rip),%rcx        # 6051a8 <optarg@@GLIBC_2.2.5>
  4013d0:	ba 52 36 40 00       	mov    $0x403652,%edx
  4013d5:	be 01 00 00 00       	mov    $0x1,%esi
  4013da:	48 8b 3d df 3d 20 00 	mov    0x203ddf(%rip),%rdi        # 6051c0 <stderr@@GLIBC_2.2.5>
  4013e1:	e8 ea fb ff ff       	callq  400fd0 <__fprintf_chk@plt>
  4013e6:	b8 01 00 00 00       	mov    $0x1,%eax
  4013eb:	e9 ca 00 00 00       	jmpq   4014ba <main+0x1c1>
  4013f0:	ba 10 00 00 00       	mov    $0x10,%edx
  4013f5:	be 00 00 00 00       	mov    $0x0,%esi
  4013fa:	48 8b 3d a7 3d 20 00 	mov    0x203da7(%rip),%rdi        # 6051a8 <optarg@@GLIBC_2.2.5>
  401401:	e8 6a fb ff ff       	callq  400f70 <strtoul@plt>
  401406:	41 89 c6             	mov    %eax,%r14d
  401409:	eb 46                	jmp    401451 <main+0x158>
  40140b:	ba 0a 00 00 00       	mov    $0xa,%edx
  401410:	be 00 00 00 00       	mov    $0x0,%esi
  401415:	48 8b 3d 8c 3d 20 00 	mov    0x203d8c(%rip),%rdi        # 6051a8 <optarg@@GLIBC_2.2.5>
  40141c:	e8 af fa ff ff       	callq  400ed0 <strtol@plt>
  401421:	41 89 c5             	mov    %eax,%r13d
  401424:	eb 2b                	jmp    401451 <main+0x158>
  401426:	c7 05 58 3d 20 00 00 	movl   $0x0,0x203d58(%rip)        # 605188 <notify>
  40142d:	00 00 00 
  401430:	eb 1f                	jmp    401451 <main+0x158>
  401432:	0f be d2             	movsbl %dl,%edx
  401435:	be 6f 36 40 00       	mov    $0x40366f,%esi
  40143a:	bf 01 00 00 00       	mov    $0x1,%edi
  40143f:	b8 00 00 00 00       	mov    $0x0,%eax
  401444:	e8 f7 fa ff ff       	callq  400f40 <__printf_chk@plt>
  401449:	48 8b 3b             	mov    (%rbx),%rdi
  40144c:	e8 c5 fc ff ff       	callq  401116 <usage>
  401451:	48 89 ea             	mov    %rbp,%rdx
  401454:	48 89 de             	mov    %rbx,%rsi
  401457:	44 89 e7             	mov    %r12d,%edi
  40145a:	e8 01 fb ff ff       	callq  400f60 <getopt@plt>
  40145f:	89 c2                	mov    %eax,%edx
  401461:	3c ff                	cmp    $0xff,%al
  401463:	0f 85 22 ff ff ff    	jne    40138b <main+0x92>
  401469:	be 00 00 00 00       	mov    $0x0,%esi
  40146e:	44 89 ef             	mov    %r13d,%edi
  401471:	e8 2a fd ff ff       	callq  4011a0 <initialize_target>
  401476:	83 3d 8b 3d 20 00 00 	cmpl   $0x0,0x203d8b(%rip)        # 605208 <is_checker>
  40147d:	74 2a                	je     4014a9 <main+0x1b0>
  40147f:	44 3b 35 7a 3d 20 00 	cmp    0x203d7a(%rip),%r14d        # 605200 <authkey>
  401486:	74 21                	je     4014a9 <main+0x1b0>
  401488:	44 89 f2             	mov    %r14d,%edx
  40148b:	be a8 35 40 00       	mov    $0x4035a8,%esi
  401490:	bf 01 00 00 00       	mov    $0x1,%edi
  401495:	b8 00 00 00 00       	mov    $0x0,%eax
  40149a:	e8 a1 fa ff ff       	callq  400f40 <__printf_chk@plt>
  40149f:	b8 00 00 00 00       	mov    $0x0,%eax
  4014a4:	e8 99 08 00 00       	callq  401d42 <check_fail>
  4014a9:	48 8b 3d d0 3c 20 00 	mov    0x203cd0(%rip),%rdi        # 605180 <buf_offset>
  4014b0:	e8 9f 0d 00 00       	callq  402254 <stable_launch>
  4014b5:	b8 00 00 00 00       	mov    $0x0,%eax
  4014ba:	5b                   	pop    %rbx
  4014bb:	5d                   	pop    %rbp
  4014bc:	41 5c                	pop    %r12
  4014be:	41 5d                	pop    %r13
  4014c0:	41 5e                	pop    %r14
  4014c2:	c3                   	retq   

00000000004014c3 <scramble>:
  4014c3:	48 83 ec 38          	sub    $0x38,%rsp
  4014c7:	64 48 8b 04 25 28 00 	mov    %fs:0x28,%rax
  4014ce:	00 00 
  4014d0:	48 89 44 24 28       	mov    %rax,0x28(%rsp)
  4014d5:	31 c0                	xor    %eax,%eax
  4014d7:	eb 10                	jmp    4014e9 <scramble+0x26>
  4014d9:	69 d0 19 72 00 00    	imul   $0x7219,%eax,%edx
  4014df:	01 fa                	add    %edi,%edx
  4014e1:	89 c1                	mov    %eax,%ecx
  4014e3:	89 14 8c             	mov    %edx,(%rsp,%rcx,4)
  4014e6:	83 c0 01             	add    $0x1,%eax
  4014e9:	83 f8 09             	cmp    $0x9,%eax
  4014ec:	76 eb                	jbe    4014d9 <scramble+0x16>
  4014ee:	8b 44 24 0c          	mov    0xc(%rsp),%eax
  4014f2:	69 c0 be a7 00 00    	imul   $0xa7be,%eax,%eax
  4014f8:	89 44 24 0c          	mov    %eax,0xc(%rsp)
  4014fc:	8b 44 24 0c          	mov    0xc(%rsp),%eax
  401500:	69 c0 1e 9f 00 00    	imul   $0x9f1e,%eax,%eax
  401506:	89 44 24 0c          	mov    %eax,0xc(%rsp)
  40150a:	8b 44 24 08          	mov    0x8(%rsp),%eax
  40150e:	69 c0 47 fc 00 00    	imul   $0xfc47,%eax,%eax
  401514:	89 44 24 08          	mov    %eax,0x8(%rsp)
  401518:	8b 44 24 1c          	mov    0x1c(%rsp),%eax
  40151c:	69 c0 f3 e7 00 00    	imul   $0xe7f3,%eax,%eax
  401522:	89 44 24 1c          	mov    %eax,0x1c(%rsp)
  401526:	8b 44 24 24          	mov    0x24(%rsp),%eax
  40152a:	69 c0 a3 79 00 00    	imul   $0x79a3,%eax,%eax
  401530:	89 44 24 24          	mov    %eax,0x24(%rsp)
  401534:	8b 44 24 24          	mov    0x24(%rsp),%eax
  401538:	69 c0 1d d8 00 00    	imul   $0xd81d,%eax,%eax
  40153e:	89 44 24 24          	mov    %eax,0x24(%rsp)
  401542:	8b 44 24 04          	mov    0x4(%rsp),%eax
  401546:	69 c0 23 95 00 00    	imul   $0x9523,%eax,%eax
  40154c:	89 44 24 04          	mov    %eax,0x4(%rsp)
  401550:	8b 04 24             	mov    (%rsp),%eax
  401553:	69 c0 9b 0d 00 00    	imul   $0xd9b,%eax,%eax
  401559:	89 04 24             	mov    %eax,(%rsp)
  40155c:	8b 44 24 18          	mov    0x18(%rsp),%eax
  401560:	69 c0 06 3f 00 00    	imul   $0x3f06,%eax,%eax
  401566:	89 44 24 18          	mov    %eax,0x18(%rsp)
  40156a:	8b 44 24 20          	mov    0x20(%rsp),%eax
  40156e:	69 c0 c0 c4 00 00    	imul   $0xc4c0,%eax,%eax
  401574:	89 44 24 20          	mov    %eax,0x20(%rsp)
  401578:	8b 44 24 04          	mov    0x4(%rsp),%eax
  40157c:	69 c0 9f 30 00 00    	imul   $0x309f,%eax,%eax
  401582:	89 44 24 04          	mov    %eax,0x4(%rsp)
  401586:	8b 44 24 24          	mov    0x24(%rsp),%eax
  40158a:	69 c0 e8 b4 00 00    	imul   $0xb4e8,%eax,%eax
  401590:	89 44 24 24          	mov    %eax,0x24(%rsp)
  401594:	8b 44 24 14          	mov    0x14(%rsp),%eax
  401598:	69 c0 71 57 00 00    	imul   $0x5771,%eax,%eax
  40159e:	89 44 24 14          	mov    %eax,0x14(%rsp)
  4015a2:	8b 44 24 10          	mov    0x10(%rsp),%eax
  4015a6:	69 c0 d4 d2 00 00    	imul   $0xd2d4,%eax,%eax
  4015ac:	89 44 24 10          	mov    %eax,0x10(%rsp)
  4015b0:	8b 44 24 14          	mov    0x14(%rsp),%eax
  4015b4:	69 c0 16 e1 00 00    	imul   $0xe116,%eax,%eax
  4015ba:	89 44 24 14          	mov    %eax,0x14(%rsp)
  4015be:	8b 44 24 10          	mov    0x10(%rsp),%eax
  4015c2:	69 c0 65 08 00 00    	imul   $0x865,%eax,%eax
  4015c8:	89 44 24 10          	mov    %eax,0x10(%rsp)
  4015cc:	8b 44 24 04          	mov    0x4(%rsp),%eax
  4015d0:	69 c0 a2 d9 00 00    	imul   $0xd9a2,%eax,%eax
  4015d6:	89 44 24 04          	mov    %eax,0x4(%rsp)
  4015da:	8b 44 24 14          	mov    0x14(%rsp),%eax
  4015de:	69 c0 91 e0 00 00    	imul   $0xe091,%eax,%eax
  4015e4:	89 44 24 14          	mov    %eax,0x14(%rsp)
  4015e8:	8b 44 24 20          	mov    0x20(%rsp),%eax
  4015ec:	69 c0 f5 2f 00 00    	imul   $0x2ff5,%eax,%eax
  4015f2:	89 44 24 20          	mov    %eax,0x20(%rsp)
  4015f6:	8b 44 24 20          	mov    0x20(%rsp),%eax
  4015fa:	69 c0 a6 a2 00 00    	imul   $0xa2a6,%eax,%eax
  401600:	89 44 24 20          	mov    %eax,0x20(%rsp)
  401604:	8b 44 24 24          	mov    0x24(%rsp),%eax
  401608:	69 c0 fc 0d 00 00    	imul   $0xdfc,%eax,%eax
  40160e:	89 44 24 24          	mov    %eax,0x24(%rsp)
  401612:	8b 44 24 04          	mov    0x4(%rsp),%eax
  401616:	69 c0 1b 8b 00 00    	imul   $0x8b1b,%eax,%eax
  40161c:	89 44 24 04          	mov    %eax,0x4(%rsp)
  401620:	8b 44 24 04          	mov    0x4(%rsp),%eax
  401624:	69 c0 a4 92 00 00    	imul   $0x92a4,%eax,%eax
  40162a:	89 44 24 04          	mov    %eax,0x4(%rsp)
  40162e:	8b 44 24 24          	mov    0x24(%rsp),%eax
  401632:	69 c0 b9 56 00 00    	imul   $0x56b9,%eax,%eax
  401638:	89 44 24 24          	mov    %eax,0x24(%rsp)
  40163c:	8b 44 24 1c          	mov    0x1c(%rsp),%eax
  401640:	69 c0 05 3d 00 00    	imul   $0x3d05,%eax,%eax
  401646:	89 44 24 1c          	mov    %eax,0x1c(%rsp)
  40164a:	8b 44 24 10          	mov    0x10(%rsp),%eax
  40164e:	69 c0 bf be 00 00    	imul   $0xbebf,%eax,%eax
  401654:	89 44 24 10          	mov    %eax,0x10(%rsp)
  401658:	8b 44 24 1c          	mov    0x1c(%rsp),%eax
  40165c:	69 c0 9a 47 00 00    	imul   $0x479a,%eax,%eax
  401662:	89 44 24 1c          	mov    %eax,0x1c(%rsp)
  401666:	8b 44 24 20          	mov    0x20(%rsp),%eax
  40166a:	69 c0 fa 2a 00 00    	imul   $0x2afa,%eax,%eax
  401670:	89 44 24 20          	mov    %eax,0x20(%rsp)
  401674:	8b 44 24 18          	mov    0x18(%rsp),%eax
  401678:	69 c0 51 58 00 00    	imul   $0x5851,%eax,%eax
  40167e:	89 44 24 18          	mov    %eax,0x18(%rsp)
  401682:	8b 44 24 24          	mov    0x24(%rsp),%eax
  401686:	69 c0 58 35 00 00    	imul   $0x3558,%eax,%eax
  40168c:	89 44 24 24          	mov    %eax,0x24(%rsp)
  401690:	8b 44 24 24          	mov    0x24(%rsp),%eax
  401694:	69 c0 5f c0 00 00    	imul   $0xc05f,%eax,%eax
  40169a:	89 44 24 24          	mov    %eax,0x24(%rsp)
  40169e:	8b 44 24 10          	mov    0x10(%rsp),%eax
  4016a2:	69 c0 3b c2 00 00    	imul   $0xc23b,%eax,%eax
  4016a8:	89 44 24 10          	mov    %eax,0x10(%rsp)
  4016ac:	8b 44 24 1c          	mov    0x1c(%rsp),%eax
  4016b0:	69 c0 40 e5 00 00    	imul   $0xe540,%eax,%eax
  4016b6:	89 44 24 1c          	mov    %eax,0x1c(%rsp)
  4016ba:	8b 44 24 20          	mov    0x20(%rsp),%eax
  4016be:	69 c0 eb 6f 00 00    	imul   $0x6feb,%eax,%eax
  4016c4:	89 44 24 20          	mov    %eax,0x20(%rsp)
  4016c8:	8b 44 24 10          	mov    0x10(%rsp),%eax
  4016cc:	69 c0 51 6b 00 00    	imul   $0x6b51,%eax,%eax
  4016d2:	89 44 24 10          	mov    %eax,0x10(%rsp)
  4016d6:	8b 44 24 1c          	mov    0x1c(%rsp),%eax
  4016da:	69 c0 ce be 00 00    	imul   $0xbece,%eax,%eax
  4016e0:	89 44 24 1c          	mov    %eax,0x1c(%rsp)
  4016e4:	8b 44 24 20          	mov    0x20(%rsp),%eax
  4016e8:	69 c0 55 8d 00 00    	imul   $0x8d55,%eax,%eax
  4016ee:	89 44 24 20          	mov    %eax,0x20(%rsp)
  4016f2:	8b 44 24 18          	mov    0x18(%rsp),%eax
  4016f6:	69 c0 6c 1c 00 00    	imul   $0x1c6c,%eax,%eax
  4016fc:	89 44 24 18          	mov    %eax,0x18(%rsp)
  401700:	8b 44 24 10          	mov    0x10(%rsp),%eax
  401704:	69 c0 a1 e2 00 00    	imul   $0xe2a1,%eax,%eax
  40170a:	89 44 24 10          	mov    %eax,0x10(%rsp)
  40170e:	8b 44 24 20          	mov    0x20(%rsp),%eax
  401712:	69 c0 a5 f1 00 00    	imul   $0xf1a5,%eax,%eax
  401718:	89 44 24 20          	mov    %eax,0x20(%rsp)
  40171c:	8b 44 24 18          	mov    0x18(%rsp),%eax
  401720:	69 c0 9f 8e 00 00    	imul   $0x8e9f,%eax,%eax
  401726:	89 44 24 18          	mov    %eax,0x18(%rsp)
  40172a:	8b 44 24 10          	mov    0x10(%rsp),%eax
  40172e:	69 c0 4b 8d 00 00    	imul   $0x8d4b,%eax,%eax
  401734:	89 44 24 10          	mov    %eax,0x10(%rsp)
  401738:	8b 44 24 0c          	mov    0xc(%rsp),%eax
  40173c:	69 c0 0b 24 00 00    	imul   $0x240b,%eax,%eax
  401742:	89 44 24 0c          	mov    %eax,0xc(%rsp)
  401746:	8b 44 24 20          	mov    0x20(%rsp),%eax
  40174a:	69 c0 46 75 00 00    	imul   $0x7546,%eax,%eax
  401750:	89 44 24 20          	mov    %eax,0x20(%rsp)
  401754:	8b 44 24 20          	mov    0x20(%rsp),%eax
  401758:	69 c0 13 b6 00 00    	imul   $0xb613,%eax,%eax
  40175e:	89 44 24 20          	mov    %eax,0x20(%rsp)
  401762:	8b 04 24             	mov    (%rsp),%eax
  401765:	69 c0 c3 b5 00 00    	imul   $0xb5c3,%eax,%eax
  40176b:	89 04 24             	mov    %eax,(%rsp)
  40176e:	8b 44 24 14          	mov    0x14(%rsp),%eax
  401772:	69 c0 5b e8 00 00    	imul   $0xe85b,%eax,%eax
  401778:	89 44 24 14          	mov    %eax,0x14(%rsp)
  40177c:	8b 44 24 04          	mov    0x4(%rsp),%eax
  401780:	69 c0 74 10 00 00    	imul   $0x1074,%eax,%eax
  401786:	89 44 24 04          	mov    %eax,0x4(%rsp)
  40178a:	8b 44 24 20          	mov    0x20(%rsp),%eax
  40178e:	69 c0 cc 1a 00 00    	imul   $0x1acc,%eax,%eax
  401794:	89 44 24 20          	mov    %eax,0x20(%rsp)
  401798:	8b 44 24 24          	mov    0x24(%rsp),%eax
  40179c:	69 c0 d1 e2 00 00    	imul   $0xe2d1,%eax,%eax
  4017a2:	89 44 24 24          	mov    %eax,0x24(%rsp)
  4017a6:	8b 04 24             	mov    (%rsp),%eax
  4017a9:	69 c0 f2 92 00 00    	imul   $0x92f2,%eax,%eax
  4017af:	89 04 24             	mov    %eax,(%rsp)
  4017b2:	8b 44 24 1c          	mov    0x1c(%rsp),%eax
  4017b6:	69 c0 6b ff 00 00    	imul   $0xff6b,%eax,%eax
  4017bc:	89 44 24 1c          	mov    %eax,0x1c(%rsp)
  4017c0:	8b 44 24 24          	mov    0x24(%rsp),%eax
  4017c4:	69 c0 8a eb 00 00    	imul   $0xeb8a,%eax,%eax
  4017ca:	89 44 24 24          	mov    %eax,0x24(%rsp)
  4017ce:	8b 44 24 04          	mov    0x4(%rsp),%eax
  4017d2:	69 c0 41 40 00 00    	imul   $0x4041,%eax,%eax
  4017d8:	89 44 24 04          	mov    %eax,0x4(%rsp)
  4017dc:	8b 44 24 08          	mov    0x8(%rsp),%eax
  4017e0:	69 c0 fd 8e 00 00    	imul   $0x8efd,%eax,%eax
  4017e6:	89 44 24 08          	mov    %eax,0x8(%rsp)
  4017ea:	8b 44 24 24          	mov    0x24(%rsp),%eax
  4017ee:	69 c0 d1 ed 00 00    	imul   $0xedd1,%eax,%eax
  4017f4:	89 44 24 24          	mov    %eax,0x24(%rsp)
  4017f8:	8b 44 24 18          	mov    0x18(%rsp),%eax
  4017fc:	69 c0 4a e2 00 00    	imul   $0xe24a,%eax,%eax
  401802:	89 44 24 18          	mov    %eax,0x18(%rsp)
  401806:	8b 44 24 08          	mov    0x8(%rsp),%eax
  40180a:	69 c0 d7 f3 00 00    	imul   $0xf3d7,%eax,%eax
  401810:	89 44 24 08          	mov    %eax,0x8(%rsp)
  401814:	8b 44 24 1c          	mov    0x1c(%rsp),%eax
  401818:	69 c0 61 33 00 00    	imul   $0x3361,%eax,%eax
  40181e:	89 44 24 1c          	mov    %eax,0x1c(%rsp)
  401822:	8b 44 24 20          	mov    0x20(%rsp),%eax
  401826:	69 c0 b2 82 00 00    	imul   $0x82b2,%eax,%eax
  40182c:	89 44 24 20          	mov    %eax,0x20(%rsp)
  401830:	8b 04 24             	mov    (%rsp),%eax
  401833:	69 c0 bb 13 00 00    	imul   $0x13bb,%eax,%eax
  401839:	89 04 24             	mov    %eax,(%rsp)
  40183c:	8b 44 24 10          	mov    0x10(%rsp),%eax
  401840:	69 c0 e7 5f 00 00    	imul   $0x5fe7,%eax,%eax
  401846:	89 44 24 10          	mov    %eax,0x10(%rsp)
  40184a:	8b 44 24 24          	mov    0x24(%rsp),%eax
  40184e:	69 c0 75 b0 00 00    	imul   $0xb075,%eax,%eax
  401854:	89 44 24 24          	mov    %eax,0x24(%rsp)
  401858:	8b 44 24 04          	mov    0x4(%rsp),%eax
  40185c:	69 c0 b1 c9 00 00    	imul   $0xc9b1,%eax,%eax
  401862:	89 44 24 04          	mov    %eax,0x4(%rsp)
  401866:	8b 44 24 1c          	mov    0x1c(%rsp),%eax
  40186a:	69 c0 bb f0 00 00    	imul   $0xf0bb,%eax,%eax
  401870:	89 44 24 1c          	mov    %eax,0x1c(%rsp)
  401874:	8b 44 24 24          	mov    0x24(%rsp),%eax
  401878:	69 c0 5e 51 00 00    	imul   $0x515e,%eax,%eax
  40187e:	89 44 24 24          	mov    %eax,0x24(%rsp)
  401882:	8b 44 24 04          	mov    0x4(%rsp),%eax
  401886:	69 c0 23 4e 00 00    	imul   $0x4e23,%eax,%eax
  40188c:	89 44 24 04          	mov    %eax,0x4(%rsp)
  401890:	8b 44 24 24          	mov    0x24(%rsp),%eax
  401894:	69 c0 f5 a3 00 00    	imul   $0xa3f5,%eax,%eax
  40189a:	89 44 24 24          	mov    %eax,0x24(%rsp)
  40189e:	8b 44 24 08          	mov    0x8(%rsp),%eax
  4018a2:	69 c0 a1 6c 00 00    	imul   $0x6ca1,%eax,%eax
  4018a8:	89 44 24 08          	mov    %eax,0x8(%rsp)
  4018ac:	8b 44 24 20          	mov    0x20(%rsp),%eax
  4018b0:	69 c0 d8 07 00 00    	imul   $0x7d8,%eax,%eax
  4018b6:	89 44 24 20          	mov    %eax,0x20(%rsp)
  4018ba:	8b 44 24 0c          	mov    0xc(%rsp),%eax
  4018be:	69 c0 1d 16 00 00    	imul   $0x161d,%eax,%eax
  4018c4:	89 44 24 0c          	mov    %eax,0xc(%rsp)
  4018c8:	8b 44 24 14          	mov    0x14(%rsp),%eax
  4018cc:	69 c0 3b 19 00 00    	imul   $0x193b,%eax,%eax
  4018d2:	89 44 24 14          	mov    %eax,0x14(%rsp)
  4018d6:	8b 04 24             	mov    (%rsp),%eax
  4018d9:	69 c0 c6 70 00 00    	imul   $0x70c6,%eax,%eax
  4018df:	89 04 24             	mov    %eax,(%rsp)
  4018e2:	8b 44 24 04          	mov    0x4(%rsp),%eax
  4018e6:	69 c0 bd fe 00 00    	imul   $0xfebd,%eax,%eax
  4018ec:	89 44 24 04          	mov    %eax,0x4(%rsp)
  4018f0:	8b 44 24 08          	mov    0x8(%rsp),%eax
  4018f4:	69 c0 2f 76 00 00    	imul   $0x762f,%eax,%eax
  4018fa:	89 44 24 08          	mov    %eax,0x8(%rsp)
  4018fe:	8b 44 24 10          	mov    0x10(%rsp),%eax
  401902:	69 c0 9c 8d 00 00    	imul   $0x8d9c,%eax,%eax
  401908:	89 44 24 10          	mov    %eax,0x10(%rsp)
  40190c:	8b 44 24 14          	mov    0x14(%rsp),%eax
  401910:	69 c0 e6 b9 00 00    	imul   $0xb9e6,%eax,%eax
  401916:	89 44 24 14          	mov    %eax,0x14(%rsp)
  40191a:	8b 44 24 04          	mov    0x4(%rsp),%eax
  40191e:	69 c0 00 86 00 00    	imul   $0x8600,%eax,%eax
  401924:	89 44 24 04          	mov    %eax,0x4(%rsp)
  401928:	8b 44 24 18          	mov    0x18(%rsp),%eax
  40192c:	69 c0 de 5d 00 00    	imul   $0x5dde,%eax,%eax
  401932:	89 44 24 18          	mov    %eax,0x18(%rsp)
  401936:	8b 44 24 08          	mov    0x8(%rsp),%eax
  40193a:	69 c0 9c 35 00 00    	imul   $0x359c,%eax,%eax
  401940:	89 44 24 08          	mov    %eax,0x8(%rsp)
  401944:	8b 44 24 10          	mov    0x10(%rsp),%eax
  401948:	69 c0 35 fc 00 00    	imul   $0xfc35,%eax,%eax
  40194e:	89 44 24 10          	mov    %eax,0x10(%rsp)
  401952:	8b 44 24 10          	mov    0x10(%rsp),%eax
  401956:	69 c0 47 d2 00 00    	imul   $0xd247,%eax,%eax
  40195c:	89 44 24 10          	mov    %eax,0x10(%rsp)
  401960:	8b 04 24             	mov    (%rsp),%eax
  401963:	69 c0 c4 d7 00 00    	imul   $0xd7c4,%eax,%eax
  401969:	89 04 24             	mov    %eax,(%rsp)
  40196c:	8b 44 24 04          	mov    0x4(%rsp),%eax
  401970:	69 c0 05 84 00 00    	imul   $0x8405,%eax,%eax
  401976:	89 44 24 04          	mov    %eax,0x4(%rsp)
  40197a:	8b 44 24 1c          	mov    0x1c(%rsp),%eax
  40197e:	69 c0 73 5a 00 00    	imul   $0x5a73,%eax,%eax
  401984:	89 44 24 1c          	mov    %eax,0x1c(%rsp)
  401988:	8b 44 24 08          	mov    0x8(%rsp),%eax
  40198c:	69 c0 03 40 00 00    	imul   $0x4003,%eax,%eax
  401992:	89 44 24 08          	mov    %eax,0x8(%rsp)
  401996:	8b 44 24 24          	mov    0x24(%rsp),%eax
  40199a:	69 c0 86 81 00 00    	imul   $0x8186,%eax,%eax
  4019a0:	89 44 24 24          	mov    %eax,0x24(%rsp)
  4019a4:	8b 44 24 08          	mov    0x8(%rsp),%eax
  4019a8:	69 c0 f7 68 00 00    	imul   $0x68f7,%eax,%eax
  4019ae:	89 44 24 08          	mov    %eax,0x8(%rsp)
  4019b2:	ba 00 00 00 00       	mov    $0x0,%edx
  4019b7:	b8 00 00 00 00       	mov    $0x0,%eax
  4019bc:	eb 0a                	jmp    4019c8 <scramble+0x505>
  4019be:	89 d1                	mov    %edx,%ecx
  4019c0:	8b 0c 8c             	mov    (%rsp,%rcx,4),%ecx
  4019c3:	01 c8                	add    %ecx,%eax
  4019c5:	83 c2 01             	add    $0x1,%edx
  4019c8:	83 fa 09             	cmp    $0x9,%edx
  4019cb:	76 f1                	jbe    4019be <scramble+0x4fb>
  4019cd:	48 8b 74 24 28       	mov    0x28(%rsp),%rsi
  4019d2:	64 48 33 34 25 28 00 	xor    %fs:0x28,%rsi
  4019d9:	00 00 
  4019db:	74 05                	je     4019e2 <scramble+0x51f>
  4019dd:	e8 3e f4 ff ff       	callq  400e20 <__stack_chk_fail@plt>
  4019e2:	48 83 c4 38          	add    $0x38,%rsp
  4019e6:	c3                   	retq   

00000000004019e7 <getbuf>:
  4019e7:	48 83 ec 38          	sub    $0x38,%rsp
  4019eb:	48 89 e7             	mov    %rsp,%rdi
  4019ee:	e8 84 03 00 00       	callq  401d77 <Gets>
  4019f3:	b8 01 00 00 00       	mov    $0x1,%eax
  4019f8:	48 83 c4 38          	add    $0x38,%rsp
  4019fc:	c3                   	retq   

00000000004019fd <calcLastFive>:
  4019fd:	48 83 ec 38          	sub    $0x38,%rsp
  401a01:	64 48 8b 04 25 28 00 	mov    %fs:0x28,%rax
  401a08:	00 00 
  401a0a:	48 89 44 24 28       	mov    %rax,0x28(%rsp)
  401a0f:	31 c0                	xor    %eax,%eax
  401a11:	48 8b 15 48 37 20 00 	mov    0x203748(%rip),%rdx        # 605160 <user_id>
  401a18:	be 10 37 40 00       	mov    $0x403710,%esi
  401a1d:	48 8d 7c 24 10       	lea    0x10(%rsp),%rdi
  401a22:	e8 79 f5 ff ff       	callq  400fa0 <sprintf@plt>
  401a27:	48 8d 74 24 16       	lea    0x16(%rsp),%rsi
  401a2c:	48 89 e7             	mov    %rsp,%rdi
  401a2f:	e8 bc f3 ff ff       	callq  400df0 <strcpy@plt>
  401a34:	48 89 e7             	mov    %rsp,%rdi
  401a37:	b8 00 00 00 00       	mov    $0x0,%eax
  401a3c:	e8 3f f5 ff ff       	callq  400f80 <atoi@plt>
  401a41:	89 05 39 47 20 00    	mov    %eax,0x204739(%rip)        # 606180 <last_five>
  401a47:	48 8b 44 24 28       	mov    0x28(%rsp),%rax
  401a4c:	64 48 33 04 25 28 00 	xor    %fs:0x28,%rax
  401a53:	00 00 
  401a55:	74 05                	je     401a5c <calcLastFive+0x5f>
  401a57:	e8 c4 f3 ff ff       	callq  400e20 <__stack_chk_fail@plt>
  401a5c:	48 83 c4 38          	add    $0x38,%rsp
  401a60:	c3                   	retq   

0000000000401a61 <touch1>:
  401a61:	48 83 ec 08          	sub    $0x8,%rsp
  401a65:	c7 05 8d 37 20 00 01 	movl   $0x1,0x20378d(%rip)        # 6051fc <vlevel>
  401a6c:	00 00 00 
  401a6f:	bf 2c 37 40 00       	mov    $0x40372c,%edi
  401a74:	e8 87 f3 ff ff       	callq  400e00 <puts@plt>
  401a79:	be 01 00 00 00       	mov    $0x1,%esi
  401a7e:	bf 01 00 00 00       	mov    $0x1,%edi
  401a83:	e8 f5 04 00 00       	callq  401f7d <validate>
  401a88:	bf 00 00 00 00       	mov    $0x0,%edi
  401a8d:	e8 1e f5 ff ff       	callq  400fb0 <exit@plt>

0000000000401a92 <touch2>:
  401a92:	55                   	push   %rbp
  401a93:	53                   	push   %rbx
  401a94:	48 83 ec 08          	sub    $0x8,%rsp
  401a98:	89 fb                	mov    %edi,%ebx
  401a9a:	89 f5                	mov    %esi,%ebp
  401a9c:	8b 15 de 46 20 00    	mov    0x2046de(%rip),%edx        # 606180 <last_five>
  401aa2:	be 49 37 40 00       	mov    $0x403749,%esi
  401aa7:	bf 01 00 00 00       	mov    $0x1,%edi
  401aac:	b8 00 00 00 00       	mov    $0x0,%eax
  401ab1:	e8 8a f4 ff ff       	callq  400f40 <__printf_chk@plt>
  401ab6:	48 8b 15 a3 36 20 00 	mov    0x2036a3(%rip),%rdx        # 605160 <user_id>
  401abd:	be 49 37 40 00       	mov    $0x403749,%esi
  401ac2:	bf 01 00 00 00       	mov    $0x1,%edi
  401ac7:	b8 00 00 00 00       	mov    $0x0,%eax
  401acc:	e8 6f f4 ff ff       	callq  400f40 <__printf_chk@plt>
  401ad1:	c7 05 21 37 20 00 02 	movl   $0x2,0x203721(%rip)        # 6051fc <vlevel>
  401ad8:	00 00 00 
  401adb:	39 1d 9f 46 20 00    	cmp    %ebx,0x20469f(%rip)        # 606180 <last_five>
  401ae1:	75 31                	jne    401b14 <touch2+0x82>
  401ae3:	39 2d 1b 37 20 00    	cmp    %ebp,0x20371b(%rip)        # 605204 <magic>
  401ae9:	75 29                	jne    401b14 <touch2+0x82>
  401aeb:	89 e9                	mov    %ebp,%ecx
  401aed:	89 da                	mov    %ebx,%edx
  401aef:	be 58 37 40 00       	mov    $0x403758,%esi
  401af4:	bf 01 00 00 00       	mov    $0x1,%edi
  401af9:	b8 00 00 00 00       	mov    $0x0,%eax
  401afe:	e8 3d f4 ff ff       	callq  400f40 <__printf_chk@plt>
  401b03:	be 01 00 00 00       	mov    $0x1,%esi
  401b08:	bf 02 00 00 00       	mov    $0x2,%edi
  401b0d:	e8 6b 04 00 00       	callq  401f7d <validate>
  401b12:	eb 22                	jmp    401b36 <touch2+0xa4>
  401b14:	89 e9                	mov    %ebp,%ecx
  401b16:	89 da                	mov    %ebx,%edx
  401b18:	be 80 37 40 00       	mov    $0x403780,%esi
  401b1d:	bf 01 00 00 00       	mov    $0x1,%edi
  401b22:	b8 00 00 00 00       	mov    $0x0,%eax
  401b27:	e8 14 f4 ff ff       	callq  400f40 <__printf_chk@plt>
  401b2c:	bf 02 00 00 00       	mov    $0x2,%edi
  401b31:	e8 1b 05 00 00       	callq  402051 <fail>
  401b36:	bf 00 00 00 00       	mov    $0x0,%edi
  401b3b:	e8 70 f4 ff ff       	callq  400fb0 <exit@plt>

0000000000401b40 <hexmatch>:
  401b40:	41 54                	push   %r12
  401b42:	55                   	push   %rbp
  401b43:	53                   	push   %rbx
  401b44:	48 83 c4 80          	add    $0xffffffffffffff80,%rsp
  401b48:	89 fd                	mov    %edi,%ebp
  401b4a:	48 89 f3             	mov    %rsi,%rbx
  401b4d:	64 48 8b 04 25 28 00 	mov    %fs:0x28,%rax
  401b54:	00 00 
  401b56:	48 89 44 24 78       	mov    %rax,0x78(%rsp)
  401b5b:	31 c0                	xor    %eax,%eax
  401b5d:	e8 9e f3 ff ff       	callq  400f00 <random@plt>
  401b62:	48 89 c1             	mov    %rax,%rcx
  401b65:	48 ba 67 66 66 66 66 	movabs $0x6666666666666667,%rdx
  401b6c:	66 66 66 
  401b6f:	48 f7 ea             	imul   %rdx
  401b72:	48 c1 fa 05          	sar    $0x5,%rdx
  401b76:	48 89 c8             	mov    %rcx,%rax
  401b79:	48 c1 f8 3f          	sar    $0x3f,%rax
  401b7d:	48 29 c2             	sub    %rax,%rdx
  401b80:	48 8d 14 92          	lea    (%rdx,%rdx,4),%rdx
  401b84:	48 89 d0             	mov    %rdx,%rax
  401b87:	48 c1 e0 04          	shl    $0x4,%rax
  401b8b:	48 29 c1             	sub    %rax,%rcx
  401b8e:	4c 8d 24 0c          	lea    (%rsp,%rcx,1),%r12
  401b92:	41 89 e8             	mov    %ebp,%r8d
  401b95:	b9 4d 37 40 00       	mov    $0x40374d,%ecx
  401b9a:	48 c7 c2 ff ff ff ff 	mov    $0xffffffffffffffff,%rdx
  401ba1:	be 01 00 00 00       	mov    $0x1,%esi
  401ba6:	4c 89 e7             	mov    %r12,%rdi
  401ba9:	b8 00 00 00 00       	mov    $0x0,%eax
  401bae:	e8 3d f4 ff ff       	callq  400ff0 <__sprintf_chk@plt>
  401bb3:	ba 09 00 00 00       	mov    $0x9,%edx
  401bb8:	4c 89 e6             	mov    %r12,%rsi
  401bbb:	48 89 df             	mov    %rbx,%rdi
  401bbe:	e8 1d f2 ff ff       	callq  400de0 <strncmp@plt>
  401bc3:	85 c0                	test   %eax,%eax
  401bc5:	0f 94 c0             	sete   %al
  401bc8:	48 8b 5c 24 78       	mov    0x78(%rsp),%rbx
  401bcd:	64 48 33 1c 25 28 00 	xor    %fs:0x28,%rbx
  401bd4:	00 00 
  401bd6:	74 05                	je     401bdd <hexmatch+0x9d>
  401bd8:	e8 43 f2 ff ff       	callq  400e20 <__stack_chk_fail@plt>
  401bdd:	0f b6 c0             	movzbl %al,%eax
  401be0:	48 83 ec 80          	sub    $0xffffffffffffff80,%rsp
  401be4:	5b                   	pop    %rbx
  401be5:	5d                   	pop    %rbp
  401be6:	41 5c                	pop    %r12
  401be8:	c3                   	retq   

0000000000401be9 <touch3>:
  401be9:	55                   	push   %rbp
  401bea:	53                   	push   %rbx
  401beb:	48 83 ec 18          	sub    $0x18,%rsp
  401bef:	48 89 fb             	mov    %rdi,%rbx
  401bf2:	48 89 f5             	mov    %rsi,%rbp
  401bf5:	64 48 8b 04 25 28 00 	mov    %fs:0x28,%rax
  401bfc:	00 00 
  401bfe:	48 89 44 24 08       	mov    %rax,0x8(%rsp)
  401c03:	31 c0                	xor    %eax,%eax
  401c05:	44 8b 05 74 45 20 00 	mov    0x204574(%rip),%r8d        # 606180 <last_five>
  401c0c:	b9 52 37 40 00       	mov    $0x403752,%ecx
  401c11:	ba 06 00 00 00       	mov    $0x6,%edx
  401c16:	be 01 00 00 00       	mov    $0x1,%esi
  401c1b:	48 89 e7             	mov    %rsp,%rdi
  401c1e:	e8 cd f3 ff ff       	callq  400ff0 <__sprintf_chk@plt>
  401c23:	c7 05 cf 35 20 00 03 	movl   $0x3,0x2035cf(%rip)        # 6051fc <vlevel>
  401c2a:	00 00 00 
  401c2d:	48 89 de             	mov    %rbx,%rsi
  401c30:	8b 3d ce 35 20 00    	mov    0x2035ce(%rip),%edi        # 605204 <magic>
  401c36:	e8 05 ff ff ff       	callq  401b40 <hexmatch>
  401c3b:	85 c0                	test   %eax,%eax
  401c3d:	74 35                	je     401c74 <touch3+0x8b>
  401c3f:	48 89 ee             	mov    %rbp,%rsi
  401c42:	48 89 e7             	mov    %rsp,%rdi
  401c45:	e8 46 f2 ff ff       	callq  400e90 <strcmp@plt>
  401c4a:	85 c0                	test   %eax,%eax
  401c4c:	75 26                	jne    401c74 <touch3+0x8b>
  401c4e:	48 89 e9             	mov    %rbp,%rcx
  401c51:	48 89 da             	mov    %rbx,%rdx
  401c54:	be a8 37 40 00       	mov    $0x4037a8,%esi
  401c59:	bf 01 00 00 00       	mov    $0x1,%edi
  401c5e:	e8 dd f2 ff ff       	callq  400f40 <__printf_chk@plt>
  401c63:	be 01 00 00 00       	mov    $0x1,%esi
  401c68:	bf 03 00 00 00       	mov    $0x3,%edi
  401c6d:	e8 0b 03 00 00       	callq  401f7d <validate>
  401c72:	eb 24                	jmp    401c98 <touch3+0xaf>
  401c74:	48 89 e9             	mov    %rbp,%rcx
  401c77:	48 89 da             	mov    %rbx,%rdx
  401c7a:	be d0 37 40 00       	mov    $0x4037d0,%esi
  401c7f:	bf 01 00 00 00       	mov    $0x1,%edi
  401c84:	b8 00 00 00 00       	mov    $0x0,%eax
  401c89:	e8 b2 f2 ff ff       	callq  400f40 <__printf_chk@plt>
  401c8e:	bf 03 00 00 00       	mov    $0x3,%edi
  401c93:	e8 b9 03 00 00       	callq  402051 <fail>
  401c98:	bf 00 00 00 00       	mov    $0x0,%edi
  401c9d:	e8 0e f3 ff ff       	callq  400fb0 <exit@plt>

0000000000401ca2 <test>:
  401ca2:	53                   	push   %rbx
  401ca3:	b8 00 00 00 00       	mov    $0x0,%eax
  401ca8:	e8 3a fd ff ff       	callq  4019e7 <getbuf>
  401cad:	89 c3                	mov    %eax,%ebx
  401caf:	be 00 00 00 00       	mov    $0x0,%esi
  401cb4:	8b 3d 42 35 20 00    	mov    0x203542(%rip),%edi        # 6051fc <vlevel>
  401cba:	e8 be 02 00 00       	callq  401f7d <validate>
  401cbf:	89 da                	mov    %ebx,%edx
  401cc1:	be f8 37 40 00       	mov    $0x4037f8,%esi
  401cc6:	bf 01 00 00 00       	mov    $0x1,%edi
  401ccb:	b8 00 00 00 00       	mov    $0x0,%eax
  401cd0:	e8 6b f2 ff ff       	callq  400f40 <__printf_chk@plt>
  401cd5:	5b                   	pop    %rbx
  401cd6:	c3                   	retq   

0000000000401cd7 <save_char>:
  401cd7:	8b 05 47 41 20 00    	mov    0x204147(%rip),%eax        # 605e24 <gets_cnt>
  401cdd:	3d ff 03 00 00       	cmp    $0x3ff,%eax
  401ce2:	7f 49                	jg     401d2d <save_char+0x56>
  401ce4:	8d 14 40             	lea    (%rax,%rax,2),%edx
  401ce7:	89 f9                	mov    %edi,%ecx
  401ce9:	c0 e9 04             	shr    $0x4,%cl
  401cec:	83 e1 0f             	and    $0xf,%ecx
  401cef:	0f b6 b1 d0 3a 40 00 	movzbl 0x403ad0(%rcx),%esi
  401cf6:	48 63 ca             	movslq %edx,%rcx
  401cf9:	40 88 b1 20 52 60 00 	mov    %sil,0x605220(%rcx)
  401d00:	8d 4a 01             	lea    0x1(%rdx),%ecx
  401d03:	83 e7 0f             	and    $0xf,%edi
  401d06:	0f b6 b7 d0 3a 40 00 	movzbl 0x403ad0(%rdi),%esi
  401d0d:	48 63 c9             	movslq %ecx,%rcx
  401d10:	40 88 b1 20 52 60 00 	mov    %sil,0x605220(%rcx)
  401d17:	83 c2 02             	add    $0x2,%edx
  401d1a:	48 63 d2             	movslq %edx,%rdx
  401d1d:	c6 82 20 52 60 00 20 	movb   $0x20,0x605220(%rdx)
  401d24:	83 c0 01             	add    $0x1,%eax
  401d27:	89 05 f7 40 20 00    	mov    %eax,0x2040f7(%rip)        # 605e24 <gets_cnt>
  401d2d:	f3 c3                	repz retq 

0000000000401d2f <save_term>:
  401d2f:	8b 05 ef 40 20 00    	mov    0x2040ef(%rip),%eax        # 605e24 <gets_cnt>
  401d35:	8d 04 40             	lea    (%rax,%rax,2),%eax
  401d38:	48 98                	cltq   
  401d3a:	c6 80 20 52 60 00 00 	movb   $0x0,0x605220(%rax)
  401d41:	c3                   	retq   

0000000000401d42 <check_fail>:
  401d42:	48 83 ec 08          	sub    $0x8,%rsp
  401d46:	0f be 15 f3 40 20 00 	movsbl 0x2040f3(%rip),%edx        # 605e40 <target_prefix>
  401d4d:	41 b8 20 52 60 00    	mov    $0x605220,%r8d
  401d53:	8b 0d 9f 34 20 00    	mov    0x20349f(%rip),%ecx        # 6051f8 <check_level>
  401d59:	be 1b 38 40 00       	mov    $0x40381b,%esi
  401d5e:	bf 01 00 00 00       	mov    $0x1,%edi
  401d63:	b8 00 00 00 00       	mov    $0x0,%eax
  401d68:	e8 d3 f1 ff ff       	callq  400f40 <__printf_chk@plt>
  401d6d:	bf 01 00 00 00       	mov    $0x1,%edi
  401d72:	e8 39 f2 ff ff       	callq  400fb0 <exit@plt>

0000000000401d77 <Gets>:
  401d77:	41 54                	push   %r12
  401d79:	55                   	push   %rbp
  401d7a:	53                   	push   %rbx
  401d7b:	49 89 fc             	mov    %rdi,%r12
  401d7e:	c7 05 9c 40 20 00 00 	movl   $0x0,0x20409c(%rip)        # 605e24 <gets_cnt>
  401d85:	00 00 00 
  401d88:	48 89 fb             	mov    %rdi,%rbx
  401d8b:	eb 11                	jmp    401d9e <Gets+0x27>
  401d8d:	48 8d 6b 01          	lea    0x1(%rbx),%rbp
  401d91:	88 03                	mov    %al,(%rbx)
  401d93:	0f b6 f8             	movzbl %al,%edi
  401d96:	e8 3c ff ff ff       	callq  401cd7 <save_char>
  401d9b:	48 89 eb             	mov    %rbp,%rbx
  401d9e:	48 8b 3d 4b 34 20 00 	mov    0x20344b(%rip),%rdi        # 6051f0 <infile>
  401da5:	e8 66 f1 ff ff       	callq  400f10 <_IO_getc@plt>
  401daa:	83 f8 ff             	cmp    $0xffffffff,%eax
  401dad:	74 05                	je     401db4 <Gets+0x3d>
  401daf:	83 f8 0a             	cmp    $0xa,%eax
  401db2:	75 d9                	jne    401d8d <Gets+0x16>
  401db4:	c6 03 00             	movb   $0x0,(%rbx)
  401db7:	b8 00 00 00 00       	mov    $0x0,%eax
  401dbc:	e8 6e ff ff ff       	callq  401d2f <save_term>
  401dc1:	4c 89 e0             	mov    %r12,%rax
  401dc4:	5b                   	pop    %rbx
  401dc5:	5d                   	pop    %rbp
  401dc6:	41 5c                	pop    %r12
  401dc8:	c3                   	retq   

0000000000401dc9 <notify_server>:
  401dc9:	53                   	push   %rbx
  401dca:	48 81 ec 10 40 00 00 	sub    $0x4010,%rsp
  401dd1:	64 48 8b 04 25 28 00 	mov    %fs:0x28,%rax
  401dd8:	00 00 
  401dda:	48 89 84 24 08 40 00 	mov    %rax,0x4008(%rsp)
  401de1:	00 
  401de2:	31 c0                	xor    %eax,%eax
  401de4:	83 3d 1d 34 20 00 00 	cmpl   $0x0,0x20341d(%rip)        # 605208 <is_checker>
  401deb:	0f 85 6b 01 00 00    	jne    401f5c <notify_server+0x193>
  401df1:	89 fb                	mov    %edi,%ebx
  401df3:	8b 05 2b 40 20 00    	mov    0x20402b(%rip),%eax        # 605e24 <gets_cnt>
  401df9:	83 c0 64             	add    $0x64,%eax
  401dfc:	3d 00 20 00 00       	cmp    $0x2000,%eax
  401e01:	7e 1e                	jle    401e21 <notify_server+0x58>
  401e03:	be 30 39 40 00       	mov    $0x403930,%esi
  401e08:	bf 01 00 00 00       	mov    $0x1,%edi
  401e0d:	b8 00 00 00 00       	mov    $0x0,%eax
  401e12:	e8 29 f1 ff ff       	callq  400f40 <__printf_chk@plt>
  401e17:	bf 01 00 00 00       	mov    $0x1,%edi
  401e1c:	e8 8f f1 ff ff       	callq  400fb0 <exit@plt>
  401e21:	0f be 05 18 40 20 00 	movsbl 0x204018(%rip),%eax        # 605e40 <target_prefix>
  401e28:	83 3d 59 33 20 00 00 	cmpl   $0x0,0x203359(%rip)        # 605188 <notify>
  401e2f:	74 08                	je     401e39 <notify_server+0x70>
  401e31:	8b 15 c9 33 20 00    	mov    0x2033c9(%rip),%edx        # 605200 <authkey>
  401e37:	eb 05                	jmp    401e3e <notify_server+0x75>
  401e39:	ba ff ff ff ff       	mov    $0xffffffff,%edx
  401e3e:	85 db                	test   %ebx,%ebx
  401e40:	74 08                	je     401e4a <notify_server+0x81>
  401e42:	41 b9 31 38 40 00    	mov    $0x403831,%r9d
  401e48:	eb 06                	jmp    401e50 <notify_server+0x87>
  401e4a:	41 b9 36 38 40 00    	mov    $0x403836,%r9d
  401e50:	68 20 52 60 00       	pushq  $0x605220
  401e55:	56                   	push   %rsi
  401e56:	50                   	push   %rax
  401e57:	52                   	push   %rdx
  401e58:	44 8b 05 09 33 20 00 	mov    0x203309(%rip),%r8d        # 605168 <target_id>
  401e5f:	b9 3b 38 40 00       	mov    $0x40383b,%ecx
  401e64:	ba 00 20 00 00       	mov    $0x2000,%edx
  401e69:	be 01 00 00 00       	mov    $0x1,%esi
  401e6e:	48 8d 7c 24 20       	lea    0x20(%rsp),%rdi
  401e73:	b8 00 00 00 00       	mov    $0x0,%eax
  401e78:	e8 73 f1 ff ff       	callq  400ff0 <__sprintf_chk@plt>
  401e7d:	48 83 c4 20          	add    $0x20,%rsp
  401e81:	83 3d 00 33 20 00 00 	cmpl   $0x0,0x203300(%rip)        # 605188 <notify>
  401e88:	0f 84 ce 00 00 00    	je     401f5c <notify_server+0x193>
  401e8e:	85 db                	test   %ebx,%ebx
  401e90:	74 6b                	je     401efd <notify_server+0x134>
  401e92:	4c 8d 8c 24 00 20 00 	lea    0x2000(%rsp),%r9
  401e99:	00 
  401e9a:	41 b8 00 00 00 00    	mov    $0x0,%r8d
  401ea0:	48 89 e1             	mov    %rsp,%rcx
  401ea3:	48 8b 15 c6 32 20 00 	mov    0x2032c6(%rip),%rdx        # 605170 <lab>
  401eaa:	48 8b 35 c7 32 20 00 	mov    0x2032c7(%rip),%rsi        # 605178 <course>
  401eb1:	48 8b 3d a8 32 20 00 	mov    0x2032a8(%rip),%rdi        # 605160 <user_id>
  401eb8:	e8 5f 14 00 00       	callq  40331c <driver_post>
  401ebd:	85 c0                	test   %eax,%eax
  401ebf:	79 26                	jns    401ee7 <notify_server+0x11e>
  401ec1:	48 8d 94 24 00 20 00 	lea    0x2000(%rsp),%rdx
  401ec8:	00 
  401ec9:	be 57 38 40 00       	mov    $0x403857,%esi
  401ece:	bf 01 00 00 00       	mov    $0x1,%edi
  401ed3:	b8 00 00 00 00       	mov    $0x0,%eax
  401ed8:	e8 63 f0 ff ff       	callq  400f40 <__printf_chk@plt>
  401edd:	bf 01 00 00 00       	mov    $0x1,%edi
  401ee2:	e8 c9 f0 ff ff       	callq  400fb0 <exit@plt>
  401ee7:	bf 60 39 40 00       	mov    $0x403960,%edi
  401eec:	e8 0f ef ff ff       	callq  400e00 <puts@plt>
  401ef1:	bf 75 38 40 00       	mov    $0x403875,%edi
  401ef6:	e8 05 ef ff ff       	callq  400e00 <puts@plt>
  401efb:	eb 5f                	jmp    401f5c <notify_server+0x193>
  401efd:	4c 8d 8c 24 00 20 00 	lea    0x2000(%rsp),%r9
  401f04:	00 
  401f05:	41 b8 00 00 00 00    	mov    $0x0,%r8d
  401f0b:	48 89 e1             	mov    %rsp,%rcx
  401f0e:	48 8b 15 5b 32 20 00 	mov    0x20325b(%rip),%rdx        # 605170 <lab>
  401f15:	48 8b 35 5c 32 20 00 	mov    0x20325c(%rip),%rsi        # 605178 <course>
  401f1c:	48 8b 3d 3d 32 20 00 	mov    0x20323d(%rip),%rdi        # 605160 <user_id>
  401f23:	e8 f4 13 00 00       	callq  40331c <driver_post>
  401f28:	85 c0                	test   %eax,%eax
  401f2a:	79 26                	jns    401f52 <notify_server+0x189>
  401f2c:	48 8d 94 24 00 20 00 	lea    0x2000(%rsp),%rdx
  401f33:	00 
  401f34:	be 57 38 40 00       	mov    $0x403857,%esi
  401f39:	bf 01 00 00 00       	mov    $0x1,%edi
  401f3e:	b8 00 00 00 00       	mov    $0x0,%eax
  401f43:	e8 f8 ef ff ff       	callq  400f40 <__printf_chk@plt>
  401f48:	bf 01 00 00 00       	mov    $0x1,%edi
  401f4d:	e8 5e f0 ff ff       	callq  400fb0 <exit@plt>
  401f52:	bf 7f 38 40 00       	mov    $0x40387f,%edi
  401f57:	e8 a4 ee ff ff       	callq  400e00 <puts@plt>
  401f5c:	48 8b 84 24 08 40 00 	mov    0x4008(%rsp),%rax
  401f63:	00 
  401f64:	64 48 33 04 25 28 00 	xor    %fs:0x28,%rax
  401f6b:	00 00 
  401f6d:	74 05                	je     401f74 <notify_server+0x1ab>
  401f6f:	e8 ac ee ff ff       	callq  400e20 <__stack_chk_fail@plt>
  401f74:	48 81 c4 10 40 00 00 	add    $0x4010,%rsp
  401f7b:	5b                   	pop    %rbx
  401f7c:	c3                   	retq   

0000000000401f7d <validate>:
  401f7d:	53                   	push   %rbx
  401f7e:	89 fb                	mov    %edi,%ebx
  401f80:	83 3d 81 32 20 00 00 	cmpl   $0x0,0x203281(%rip)        # 605208 <is_checker>
  401f87:	74 6b                	je     401ff4 <validate+0x77>
  401f89:	39 3d 6d 32 20 00    	cmp    %edi,0x20326d(%rip)        # 6051fc <vlevel>
  401f8f:	74 14                	je     401fa5 <validate+0x28>
  401f91:	bf 86 38 40 00       	mov    $0x403886,%edi
  401f96:	e8 65 ee ff ff       	callq  400e00 <puts@plt>
  401f9b:	b8 00 00 00 00       	mov    $0x0,%eax
  401fa0:	e8 9d fd ff ff       	callq  401d42 <check_fail>
  401fa5:	8b 15 4d 32 20 00    	mov    0x20324d(%rip),%edx        # 6051f8 <check_level>
  401fab:	39 d7                	cmp    %edx,%edi
  401fad:	74 20                	je     401fcf <validate+0x52>
  401faf:	89 f9                	mov    %edi,%ecx
  401fb1:	be 98 39 40 00       	mov    $0x403998,%esi
  401fb6:	bf 01 00 00 00       	mov    $0x1,%edi
  401fbb:	b8 00 00 00 00       	mov    $0x0,%eax
  401fc0:	e8 7b ef ff ff       	callq  400f40 <__printf_chk@plt>
  401fc5:	b8 00 00 00 00       	mov    $0x0,%eax
  401fca:	e8 73 fd ff ff       	callq  401d42 <check_fail>
  401fcf:	0f be 15 6a 3e 20 00 	movsbl 0x203e6a(%rip),%edx        # 605e40 <target_prefix>
  401fd6:	41 b8 20 52 60 00    	mov    $0x605220,%r8d
  401fdc:	89 f9                	mov    %edi,%ecx
  401fde:	be a4 38 40 00       	mov    $0x4038a4,%esi
  401fe3:	bf 01 00 00 00       	mov    $0x1,%edi
  401fe8:	b8 00 00 00 00       	mov    $0x0,%eax
  401fed:	e8 4e ef ff ff       	callq  400f40 <__printf_chk@plt>
  401ff2:	eb 5b                	jmp    40204f <validate+0xd2>
  401ff4:	3b 3d 02 32 20 00    	cmp    0x203202(%rip),%edi        # 6051fc <vlevel>
  401ffa:	74 18                	je     402014 <validate+0x97>
  401ffc:	bf 86 38 40 00       	mov    $0x403886,%edi
  402001:	e8 fa ed ff ff       	callq  400e00 <puts@plt>
  402006:	89 de                	mov    %ebx,%esi
  402008:	bf 00 00 00 00       	mov    $0x0,%edi
  40200d:	e8 b7 fd ff ff       	callq  401dc9 <notify_server>
  402012:	eb 3b                	jmp    40204f <validate+0xd2>
  402014:	85 f6                	test   %esi,%esi
  402016:	75 0e                	jne    402026 <validate+0xa9>
  402018:	89 fe                	mov    %edi,%esi
  40201a:	bf 00 00 00 00       	mov    $0x0,%edi
  40201f:	e8 a5 fd ff ff       	callq  401dc9 <notify_server>
  402024:	eb 29                	jmp    40204f <validate+0xd2>
  402026:	0f be 0d 13 3e 20 00 	movsbl 0x203e13(%rip),%ecx        # 605e40 <target_prefix>
  40202d:	89 fa                	mov    %edi,%edx
  40202f:	be c0 39 40 00       	mov    $0x4039c0,%esi
  402034:	bf 01 00 00 00       	mov    $0x1,%edi
  402039:	b8 00 00 00 00       	mov    $0x0,%eax
  40203e:	e8 fd ee ff ff       	callq  400f40 <__printf_chk@plt>
  402043:	89 de                	mov    %ebx,%esi
  402045:	bf 01 00 00 00       	mov    $0x1,%edi
  40204a:	e8 7a fd ff ff       	callq  401dc9 <notify_server>
  40204f:	5b                   	pop    %rbx
  402050:	c3                   	retq   

0000000000402051 <fail>:
  402051:	48 83 ec 08          	sub    $0x8,%rsp
  402055:	83 3d ac 31 20 00 00 	cmpl   $0x0,0x2031ac(%rip)        # 605208 <is_checker>
  40205c:	74 0a                	je     402068 <fail+0x17>
  40205e:	b8 00 00 00 00       	mov    $0x0,%eax
  402063:	e8 da fc ff ff       	callq  401d42 <check_fail>
  402068:	89 fe                	mov    %edi,%esi
  40206a:	bf 00 00 00 00       	mov    $0x0,%edi
  40206f:	e8 55 fd ff ff       	callq  401dc9 <notify_server>
  402074:	48 83 c4 08          	add    $0x8,%rsp
  402078:	c3                   	retq   

0000000000402079 <bushandler>:
  402079:	48 83 ec 08          	sub    $0x8,%rsp
  40207d:	83 3d 84 31 20 00 00 	cmpl   $0x0,0x203184(%rip)        # 605208 <is_checker>
  402084:	74 14                	je     40209a <bushandler+0x21>
  402086:	bf b9 38 40 00       	mov    $0x4038b9,%edi
  40208b:	e8 70 ed ff ff       	callq  400e00 <puts@plt>
  402090:	b8 00 00 00 00       	mov    $0x0,%eax
  402095:	e8 a8 fc ff ff       	callq  401d42 <check_fail>
  40209a:	bf f8 39 40 00       	mov    $0x4039f8,%edi
  40209f:	e8 5c ed ff ff       	callq  400e00 <puts@plt>
  4020a4:	bf c3 38 40 00       	mov    $0x4038c3,%edi
  4020a9:	e8 52 ed ff ff       	callq  400e00 <puts@plt>
  4020ae:	be 00 00 00 00       	mov    $0x0,%esi
  4020b3:	bf 00 00 00 00       	mov    $0x0,%edi
  4020b8:	e8 0c fd ff ff       	callq  401dc9 <notify_server>
  4020bd:	bf 01 00 00 00       	mov    $0x1,%edi
  4020c2:	e8 e9 ee ff ff       	callq  400fb0 <exit@plt>

00000000004020c7 <seghandler>:
  4020c7:	48 83 ec 08          	sub    $0x8,%rsp
  4020cb:	83 3d 36 31 20 00 00 	cmpl   $0x0,0x203136(%rip)        # 605208 <is_checker>
  4020d2:	74 14                	je     4020e8 <seghandler+0x21>
  4020d4:	bf d9 38 40 00       	mov    $0x4038d9,%edi
  4020d9:	e8 22 ed ff ff       	callq  400e00 <puts@plt>
  4020de:	b8 00 00 00 00       	mov    $0x0,%eax
  4020e3:	e8 5a fc ff ff       	callq  401d42 <check_fail>
  4020e8:	bf 18 3a 40 00       	mov    $0x403a18,%edi
  4020ed:	e8 0e ed ff ff       	callq  400e00 <puts@plt>
  4020f2:	bf c3 38 40 00       	mov    $0x4038c3,%edi
  4020f7:	e8 04 ed ff ff       	callq  400e00 <puts@plt>
  4020fc:	bf 01 00 00 00       	mov    $0x1,%edi
  402101:	e8 aa ee ff ff       	callq  400fb0 <exit@plt>

0000000000402106 <illegalhandler>:
  402106:	48 83 ec 08          	sub    $0x8,%rsp
  40210a:	83 3d f7 30 20 00 00 	cmpl   $0x0,0x2030f7(%rip)        # 605208 <is_checker>
  402111:	74 14                	je     402127 <illegalhandler+0x21>
  402113:	bf ec 38 40 00       	mov    $0x4038ec,%edi
  402118:	e8 e3 ec ff ff       	callq  400e00 <puts@plt>
  40211d:	b8 00 00 00 00       	mov    $0x0,%eax
  402122:	e8 1b fc ff ff       	callq  401d42 <check_fail>
  402127:	bf 40 3a 40 00       	mov    $0x403a40,%edi
  40212c:	e8 cf ec ff ff       	callq  400e00 <puts@plt>
  402131:	bf c3 38 40 00       	mov    $0x4038c3,%edi
  402136:	e8 c5 ec ff ff       	callq  400e00 <puts@plt>
  40213b:	be 00 00 00 00       	mov    $0x0,%esi
  402140:	bf 00 00 00 00       	mov    $0x0,%edi
  402145:	e8 7f fc ff ff       	callq  401dc9 <notify_server>
  40214a:	bf 01 00 00 00       	mov    $0x1,%edi
  40214f:	e8 5c ee ff ff       	callq  400fb0 <exit@plt>

0000000000402154 <sigalrmhandler>:
  402154:	48 83 ec 08          	sub    $0x8,%rsp
  402158:	83 3d a9 30 20 00 00 	cmpl   $0x0,0x2030a9(%rip)        # 605208 <is_checker>
  40215f:	74 14                	je     402175 <sigalrmhandler+0x21>
  402161:	bf 00 39 40 00       	mov    $0x403900,%edi
  402166:	e8 95 ec ff ff       	callq  400e00 <puts@plt>
  40216b:	b8 00 00 00 00       	mov    $0x0,%eax
  402170:	e8 cd fb ff ff       	callq  401d42 <check_fail>
  402175:	ba 05 00 00 00       	mov    $0x5,%edx
  40217a:	be 70 3a 40 00       	mov    $0x403a70,%esi
  40217f:	bf 01 00 00 00       	mov    $0x1,%edi
  402184:	b8 00 00 00 00       	mov    $0x0,%eax
  402189:	e8 b2 ed ff ff       	callq  400f40 <__printf_chk@plt>
  40218e:	be 00 00 00 00       	mov    $0x0,%esi
  402193:	bf 00 00 00 00       	mov    $0x0,%edi
  402198:	e8 2c fc ff ff       	callq  401dc9 <notify_server>
  40219d:	bf 01 00 00 00       	mov    $0x1,%edi
  4021a2:	e8 09 ee ff ff       	callq  400fb0 <exit@plt>

00000000004021a7 <launch>:
  4021a7:	55                   	push   %rbp
  4021a8:	48 89 e5             	mov    %rsp,%rbp
  4021ab:	48 83 ec 10          	sub    $0x10,%rsp
  4021af:	48 89 fa             	mov    %rdi,%rdx
  4021b2:	64 48 8b 04 25 28 00 	mov    %fs:0x28,%rax
  4021b9:	00 00 
  4021bb:	48 89 45 f8          	mov    %rax,-0x8(%rbp)
  4021bf:	31 c0                	xor    %eax,%eax
  4021c1:	48 8d 47 1e          	lea    0x1e(%rdi),%rax
  4021c5:	48 83 e0 f0          	and    $0xfffffffffffffff0,%rax
  4021c9:	48 29 c4             	sub    %rax,%rsp
  4021cc:	48 8d 7c 24 0f       	lea    0xf(%rsp),%rdi
  4021d1:	48 83 e7 f0          	and    $0xfffffffffffffff0,%rdi
  4021d5:	be f4 00 00 00       	mov    $0xf4,%esi
  4021da:	e8 61 ec ff ff       	callq  400e40 <memset@plt>
  4021df:	48 8b 05 ba 2f 20 00 	mov    0x202fba(%rip),%rax        # 6051a0 <stdin@@GLIBC_2.2.5>
  4021e6:	48 39 05 03 30 20 00 	cmp    %rax,0x203003(%rip)        # 6051f0 <infile>
  4021ed:	75 14                	jne    402203 <launch+0x5c>
  4021ef:	be 08 39 40 00       	mov    $0x403908,%esi
  4021f4:	bf 01 00 00 00       	mov    $0x1,%edi
  4021f9:	b8 00 00 00 00       	mov    $0x0,%eax
  4021fe:	e8 3d ed ff ff       	callq  400f40 <__printf_chk@plt>
  402203:	c7 05 ef 2f 20 00 00 	movl   $0x0,0x202fef(%rip)        # 6051fc <vlevel>
  40220a:	00 00 00 
  40220d:	b8 00 00 00 00       	mov    $0x0,%eax
  402212:	e8 8b fa ff ff       	callq  401ca2 <test>
  402217:	83 3d ea 2f 20 00 00 	cmpl   $0x0,0x202fea(%rip)        # 605208 <is_checker>
  40221e:	74 14                	je     402234 <launch+0x8d>
  402220:	bf 15 39 40 00       	mov    $0x403915,%edi
  402225:	e8 d6 eb ff ff       	callq  400e00 <puts@plt>
  40222a:	b8 00 00 00 00       	mov    $0x0,%eax
  40222f:	e8 0e fb ff ff       	callq  401d42 <check_fail>
  402234:	bf 20 39 40 00       	mov    $0x403920,%edi
  402239:	e8 c2 eb ff ff       	callq  400e00 <puts@plt>
  40223e:	48 8b 45 f8          	mov    -0x8(%rbp),%rax
  402242:	64 48 33 04 25 28 00 	xor    %fs:0x28,%rax
  402249:	00 00 
  40224b:	74 05                	je     402252 <launch+0xab>
  40224d:	e8 ce eb ff ff       	callq  400e20 <__stack_chk_fail@plt>
  402252:	c9                   	leaveq 
  402253:	c3                   	retq   

0000000000402254 <stable_launch>:
  402254:	53                   	push   %rbx
  402255:	48 89 3d 8c 2f 20 00 	mov    %rdi,0x202f8c(%rip)        # 6051e8 <global_offset>
  40225c:	41 b9 00 00 00 00    	mov    $0x0,%r9d
  402262:	41 b8 00 00 00 00    	mov    $0x0,%r8d
  402268:	b9 32 01 00 00       	mov    $0x132,%ecx
  40226d:	ba 07 00 00 00       	mov    $0x7,%edx
  402272:	be 00 00 10 00       	mov    $0x100000,%esi
  402277:	bf 00 60 58 55       	mov    $0x55586000,%edi
  40227c:	e8 af eb ff ff       	callq  400e30 <mmap@plt>
  402281:	48 89 c3             	mov    %rax,%rbx
  402284:	48 3d 00 60 58 55    	cmp    $0x55586000,%rax
  40228a:	74 37                	je     4022c3 <stable_launch+0x6f>
  40228c:	be 00 00 10 00       	mov    $0x100000,%esi
  402291:	48 89 c7             	mov    %rax,%rdi
  402294:	e8 97 ec ff ff       	callq  400f30 <munmap@plt>
  402299:	b9 00 60 58 55       	mov    $0x55586000,%ecx
  40229e:	ba a8 3a 40 00       	mov    $0x403aa8,%edx
  4022a3:	be 01 00 00 00       	mov    $0x1,%esi
  4022a8:	48 8b 3d 11 2f 20 00 	mov    0x202f11(%rip),%rdi        # 6051c0 <stderr@@GLIBC_2.2.5>
  4022af:	b8 00 00 00 00       	mov    $0x0,%eax
  4022b4:	e8 17 ed ff ff       	callq  400fd0 <__fprintf_chk@plt>
  4022b9:	bf 01 00 00 00       	mov    $0x1,%edi
  4022be:	e8 ed ec ff ff       	callq  400fb0 <exit@plt>
  4022c3:	48 8d 90 f8 ff 0f 00 	lea    0xffff8(%rax),%rdx
  4022ca:	48 89 15 b7 3e 20 00 	mov    %rdx,0x203eb7(%rip)        # 606188 <stack_top>
  4022d1:	48 89 e0             	mov    %rsp,%rax
  4022d4:	48 89 d4             	mov    %rdx,%rsp
  4022d7:	48 89 c2             	mov    %rax,%rdx
  4022da:	48 89 15 ff 2e 20 00 	mov    %rdx,0x202eff(%rip)        # 6051e0 <global_save_stack>
  4022e1:	48 8b 3d 00 2f 20 00 	mov    0x202f00(%rip),%rdi        # 6051e8 <global_offset>
  4022e8:	e8 ba fe ff ff       	callq  4021a7 <launch>
  4022ed:	48 8b 05 ec 2e 20 00 	mov    0x202eec(%rip),%rax        # 6051e0 <global_save_stack>
  4022f4:	48 89 c4             	mov    %rax,%rsp
  4022f7:	be 00 00 10 00       	mov    $0x100000,%esi
  4022fc:	48 89 df             	mov    %rbx,%rdi
  4022ff:	e8 2c ec ff ff       	callq  400f30 <munmap@plt>
  402304:	5b                   	pop    %rbx
  402305:	c3                   	retq   

0000000000402306 <rio_readinitb>:
  402306:	89 37                	mov    %esi,(%rdi)
  402308:	c7 47 04 00 00 00 00 	movl   $0x0,0x4(%rdi)
  40230f:	48 8d 47 10          	lea    0x10(%rdi),%rax
  402313:	48 89 47 08          	mov    %rax,0x8(%rdi)
  402317:	c3                   	retq   

0000000000402318 <sigalrm_handler>:
  402318:	48 83 ec 08          	sub    $0x8,%rsp
  40231c:	b9 00 00 00 00       	mov    $0x0,%ecx
  402321:	ba e0 3a 40 00       	mov    $0x403ae0,%edx
  402326:	be 01 00 00 00       	mov    $0x1,%esi
  40232b:	48 8b 3d 8e 2e 20 00 	mov    0x202e8e(%rip),%rdi        # 6051c0 <stderr@@GLIBC_2.2.5>
  402332:	b8 00 00 00 00       	mov    $0x0,%eax
  402337:	e8 94 ec ff ff       	callq  400fd0 <__fprintf_chk@plt>
  40233c:	bf 01 00 00 00       	mov    $0x1,%edi
  402341:	e8 6a ec ff ff       	callq  400fb0 <exit@plt>

0000000000402346 <rio_writen>:
  402346:	41 55                	push   %r13
  402348:	41 54                	push   %r12
  40234a:	55                   	push   %rbp
  40234b:	53                   	push   %rbx
  40234c:	48 83 ec 08          	sub    $0x8,%rsp
  402350:	41 89 fc             	mov    %edi,%r12d
  402353:	48 89 f5             	mov    %rsi,%rbp
  402356:	49 89 d5             	mov    %rdx,%r13
  402359:	48 89 d3             	mov    %rdx,%rbx
  40235c:	eb 28                	jmp    402386 <rio_writen+0x40>
  40235e:	48 89 da             	mov    %rbx,%rdx
  402361:	48 89 ee             	mov    %rbp,%rsi
  402364:	44 89 e7             	mov    %r12d,%edi
  402367:	e8 a4 ea ff ff       	callq  400e10 <write@plt>
  40236c:	48 85 c0             	test   %rax,%rax
  40236f:	7f 0f                	jg     402380 <rio_writen+0x3a>
  402371:	e8 4a ea ff ff       	callq  400dc0 <__errno_location@plt>
  402376:	83 38 04             	cmpl   $0x4,(%rax)
  402379:	75 15                	jne    402390 <rio_writen+0x4a>
  40237b:	b8 00 00 00 00       	mov    $0x0,%eax
  402380:	48 29 c3             	sub    %rax,%rbx
  402383:	48 01 c5             	add    %rax,%rbp
  402386:	48 85 db             	test   %rbx,%rbx
  402389:	75 d3                	jne    40235e <rio_writen+0x18>
  40238b:	4c 89 e8             	mov    %r13,%rax
  40238e:	eb 07                	jmp    402397 <rio_writen+0x51>
  402390:	48 c7 c0 ff ff ff ff 	mov    $0xffffffffffffffff,%rax
  402397:	48 83 c4 08          	add    $0x8,%rsp
  40239b:	5b                   	pop    %rbx
  40239c:	5d                   	pop    %rbp
  40239d:	41 5c                	pop    %r12
  40239f:	41 5d                	pop    %r13
  4023a1:	c3                   	retq   

00000000004023a2 <rio_read>:
  4023a2:	41 55                	push   %r13
  4023a4:	41 54                	push   %r12
  4023a6:	55                   	push   %rbp
  4023a7:	53                   	push   %rbx
  4023a8:	48 83 ec 08          	sub    $0x8,%rsp
  4023ac:	48 89 fb             	mov    %rdi,%rbx
  4023af:	49 89 f5             	mov    %rsi,%r13
  4023b2:	49 89 d4             	mov    %rdx,%r12
  4023b5:	eb 2e                	jmp    4023e5 <rio_read+0x43>
  4023b7:	48 8d 6b 10          	lea    0x10(%rbx),%rbp
  4023bb:	8b 3b                	mov    (%rbx),%edi
  4023bd:	ba 00 20 00 00       	mov    $0x2000,%edx
  4023c2:	48 89 ee             	mov    %rbp,%rsi
  4023c5:	e8 a6 ea ff ff       	callq  400e70 <read@plt>
  4023ca:	89 43 04             	mov    %eax,0x4(%rbx)
  4023cd:	85 c0                	test   %eax,%eax
  4023cf:	79 0c                	jns    4023dd <rio_read+0x3b>
  4023d1:	e8 ea e9 ff ff       	callq  400dc0 <__errno_location@plt>
  4023d6:	83 38 04             	cmpl   $0x4,(%rax)
  4023d9:	74 0a                	je     4023e5 <rio_read+0x43>
  4023db:	eb 37                	jmp    402414 <rio_read+0x72>
  4023dd:	85 c0                	test   %eax,%eax
  4023df:	74 3c                	je     40241d <rio_read+0x7b>
  4023e1:	48 89 6b 08          	mov    %rbp,0x8(%rbx)
  4023e5:	8b 6b 04             	mov    0x4(%rbx),%ebp
  4023e8:	85 ed                	test   %ebp,%ebp
  4023ea:	7e cb                	jle    4023b7 <rio_read+0x15>
  4023ec:	89 e8                	mov    %ebp,%eax
  4023ee:	49 39 c4             	cmp    %rax,%r12
  4023f1:	77 03                	ja     4023f6 <rio_read+0x54>
  4023f3:	44 89 e5             	mov    %r12d,%ebp
  4023f6:	4c 63 e5             	movslq %ebp,%r12
  4023f9:	48 8b 73 08          	mov    0x8(%rbx),%rsi
  4023fd:	4c 89 e2             	mov    %r12,%rdx
  402400:	4c 89 ef             	mov    %r13,%rdi
  402403:	e8 d8 ea ff ff       	callq  400ee0 <memcpy@plt>
  402408:	4c 01 63 08          	add    %r12,0x8(%rbx)
  40240c:	29 6b 04             	sub    %ebp,0x4(%rbx)
  40240f:	4c 89 e0             	mov    %r12,%rax
  402412:	eb 0e                	jmp    402422 <rio_read+0x80>
  402414:	48 c7 c0 ff ff ff ff 	mov    $0xffffffffffffffff,%rax
  40241b:	eb 05                	jmp    402422 <rio_read+0x80>
  40241d:	b8 00 00 00 00       	mov    $0x0,%eax
  402422:	48 83 c4 08          	add    $0x8,%rsp
  402426:	5b                   	pop    %rbx
  402427:	5d                   	pop    %rbp
  402428:	41 5c                	pop    %r12
  40242a:	41 5d                	pop    %r13
  40242c:	c3                   	retq   

000000000040242d <rio_readlineb>:
  40242d:	41 55                	push   %r13
  40242f:	41 54                	push   %r12
  402431:	55                   	push   %rbp
  402432:	53                   	push   %rbx
  402433:	48 83 ec 18          	sub    $0x18,%rsp
  402437:	49 89 fd             	mov    %rdi,%r13
  40243a:	48 89 f5             	mov    %rsi,%rbp
  40243d:	49 89 d4             	mov    %rdx,%r12
  402440:	64 48 8b 04 25 28 00 	mov    %fs:0x28,%rax
  402447:	00 00 
  402449:	48 89 44 24 08       	mov    %rax,0x8(%rsp)
  40244e:	31 c0                	xor    %eax,%eax
  402450:	bb 01 00 00 00       	mov    $0x1,%ebx
  402455:	eb 3f                	jmp    402496 <rio_readlineb+0x69>
  402457:	ba 01 00 00 00       	mov    $0x1,%edx
  40245c:	48 8d 74 24 07       	lea    0x7(%rsp),%rsi
  402461:	4c 89 ef             	mov    %r13,%rdi
  402464:	e8 39 ff ff ff       	callq  4023a2 <rio_read>
  402469:	83 f8 01             	cmp    $0x1,%eax
  40246c:	75 15                	jne    402483 <rio_readlineb+0x56>
  40246e:	48 8d 45 01          	lea    0x1(%rbp),%rax
  402472:	0f b6 54 24 07       	movzbl 0x7(%rsp),%edx
  402477:	88 55 00             	mov    %dl,0x0(%rbp)
  40247a:	80 7c 24 07 0a       	cmpb   $0xa,0x7(%rsp)
  40247f:	75 0e                	jne    40248f <rio_readlineb+0x62>
  402481:	eb 1a                	jmp    40249d <rio_readlineb+0x70>
  402483:	85 c0                	test   %eax,%eax
  402485:	75 22                	jne    4024a9 <rio_readlineb+0x7c>
  402487:	48 83 fb 01          	cmp    $0x1,%rbx
  40248b:	75 13                	jne    4024a0 <rio_readlineb+0x73>
  40248d:	eb 23                	jmp    4024b2 <rio_readlineb+0x85>
  40248f:	48 83 c3 01          	add    $0x1,%rbx
  402493:	48 89 c5             	mov    %rax,%rbp
  402496:	4c 39 e3             	cmp    %r12,%rbx
  402499:	72 bc                	jb     402457 <rio_readlineb+0x2a>
  40249b:	eb 03                	jmp    4024a0 <rio_readlineb+0x73>
  40249d:	48 89 c5             	mov    %rax,%rbp
  4024a0:	c6 45 00 00          	movb   $0x0,0x0(%rbp)
  4024a4:	48 89 d8             	mov    %rbx,%rax
  4024a7:	eb 0e                	jmp    4024b7 <rio_readlineb+0x8a>
  4024a9:	48 c7 c0 ff ff ff ff 	mov    $0xffffffffffffffff,%rax
  4024b0:	eb 05                	jmp    4024b7 <rio_readlineb+0x8a>
  4024b2:	b8 00 00 00 00       	mov    $0x0,%eax
  4024b7:	48 8b 4c 24 08       	mov    0x8(%rsp),%rcx
  4024bc:	64 48 33 0c 25 28 00 	xor    %fs:0x28,%rcx
  4024c3:	00 00 
  4024c5:	74 05                	je     4024cc <rio_readlineb+0x9f>
  4024c7:	e8 54 e9 ff ff       	callq  400e20 <__stack_chk_fail@plt>
  4024cc:	48 83 c4 18          	add    $0x18,%rsp
  4024d0:	5b                   	pop    %rbx
  4024d1:	5d                   	pop    %rbp
  4024d2:	41 5c                	pop    %r12
  4024d4:	41 5d                	pop    %r13
  4024d6:	c3                   	retq   

00000000004024d7 <urlencode>:
  4024d7:	41 54                	push   %r12
  4024d9:	55                   	push   %rbp
  4024da:	53                   	push   %rbx
  4024db:	48 83 ec 10          	sub    $0x10,%rsp
  4024df:	48 89 fb             	mov    %rdi,%rbx
  4024e2:	48 89 f5             	mov    %rsi,%rbp
  4024e5:	64 48 8b 04 25 28 00 	mov    %fs:0x28,%rax
  4024ec:	00 00 
  4024ee:	48 89 44 24 08       	mov    %rax,0x8(%rsp)
  4024f3:	31 c0                	xor    %eax,%eax
  4024f5:	48 c7 c1 ff ff ff ff 	mov    $0xffffffffffffffff,%rcx
  4024fc:	f2 ae                	repnz scas %es:(%rdi),%al
  4024fe:	48 f7 d1             	not    %rcx
  402501:	8d 41 ff             	lea    -0x1(%rcx),%eax
  402504:	e9 aa 00 00 00       	jmpq   4025b3 <urlencode+0xdc>
  402509:	44 0f b6 03          	movzbl (%rbx),%r8d
  40250d:	41 80 f8 2a          	cmp    $0x2a,%r8b
  402511:	0f 94 c2             	sete   %dl
  402514:	41 80 f8 2d          	cmp    $0x2d,%r8b
  402518:	0f 94 c0             	sete   %al
  40251b:	08 c2                	or     %al,%dl
  40251d:	75 24                	jne    402543 <urlencode+0x6c>
  40251f:	41 80 f8 2e          	cmp    $0x2e,%r8b
  402523:	74 1e                	je     402543 <urlencode+0x6c>
  402525:	41 80 f8 5f          	cmp    $0x5f,%r8b
  402529:	74 18                	je     402543 <urlencode+0x6c>
  40252b:	41 8d 40 d0          	lea    -0x30(%r8),%eax
  40252f:	3c 09                	cmp    $0x9,%al
  402531:	76 10                	jbe    402543 <urlencode+0x6c>
  402533:	41 8d 40 bf          	lea    -0x41(%r8),%eax
  402537:	3c 19                	cmp    $0x19,%al
  402539:	76 08                	jbe    402543 <urlencode+0x6c>
  40253b:	41 8d 40 9f          	lea    -0x61(%r8),%eax
  40253f:	3c 19                	cmp    $0x19,%al
  402541:	77 0a                	ja     40254d <urlencode+0x76>
  402543:	44 88 45 00          	mov    %r8b,0x0(%rbp)
  402547:	48 8d 6d 01          	lea    0x1(%rbp),%rbp
  40254b:	eb 5f                	jmp    4025ac <urlencode+0xd5>
  40254d:	41 80 f8 20          	cmp    $0x20,%r8b
  402551:	75 0a                	jne    40255d <urlencode+0x86>
  402553:	c6 45 00 2b          	movb   $0x2b,0x0(%rbp)
  402557:	48 8d 6d 01          	lea    0x1(%rbp),%rbp
  40255b:	eb 4f                	jmp    4025ac <urlencode+0xd5>
  40255d:	41 8d 40 e0          	lea    -0x20(%r8),%eax
  402561:	3c 5f                	cmp    $0x5f,%al
  402563:	0f 96 c2             	setbe  %dl
  402566:	41 80 f8 09          	cmp    $0x9,%r8b
  40256a:	0f 94 c0             	sete   %al
  40256d:	08 c2                	or     %al,%dl
  40256f:	74 50                	je     4025c1 <urlencode+0xea>
  402571:	45 0f b6 c0          	movzbl %r8b,%r8d
  402575:	b9 90 3b 40 00       	mov    $0x403b90,%ecx
  40257a:	ba 08 00 00 00       	mov    $0x8,%edx
  40257f:	be 01 00 00 00       	mov    $0x1,%esi
  402584:	48 89 e7             	mov    %rsp,%rdi
  402587:	b8 00 00 00 00       	mov    $0x0,%eax
  40258c:	e8 5f ea ff ff       	callq  400ff0 <__sprintf_chk@plt>
  402591:	0f b6 04 24          	movzbl (%rsp),%eax
  402595:	88 45 00             	mov    %al,0x0(%rbp)
  402598:	0f b6 44 24 01       	movzbl 0x1(%rsp),%eax
  40259d:	88 45 01             	mov    %al,0x1(%rbp)
  4025a0:	0f b6 44 24 02       	movzbl 0x2(%rsp),%eax
  4025a5:	88 45 02             	mov    %al,0x2(%rbp)
  4025a8:	48 8d 6d 03          	lea    0x3(%rbp),%rbp
  4025ac:	48 83 c3 01          	add    $0x1,%rbx
  4025b0:	44 89 e0             	mov    %r12d,%eax
  4025b3:	44 8d 60 ff          	lea    -0x1(%rax),%r12d
  4025b7:	85 c0                	test   %eax,%eax
  4025b9:	0f 85 4a ff ff ff    	jne    402509 <urlencode+0x32>
  4025bf:	eb 05                	jmp    4025c6 <urlencode+0xef>
  4025c1:	b8 ff ff ff ff       	mov    $0xffffffff,%eax
  4025c6:	48 8b 74 24 08       	mov    0x8(%rsp),%rsi
  4025cb:	64 48 33 34 25 28 00 	xor    %fs:0x28,%rsi
  4025d2:	00 00 
  4025d4:	74 05                	je     4025db <urlencode+0x104>
  4025d6:	e8 45 e8 ff ff       	callq  400e20 <__stack_chk_fail@plt>
  4025db:	48 83 c4 10          	add    $0x10,%rsp
  4025df:	5b                   	pop    %rbx
  4025e0:	5d                   	pop    %rbp
  4025e1:	41 5c                	pop    %r12
  4025e3:	c3                   	retq   

00000000004025e4 <jsonencode>:
  4025e4:	41 57                	push   %r15
  4025e6:	41 56                	push   %r14
  4025e8:	41 55                	push   %r13
  4025ea:	41 54                	push   %r12
  4025ec:	55                   	push   %rbp
  4025ed:	53                   	push   %rbx
  4025ee:	48 81 ec 08 04 00 00 	sub    $0x408,%rsp
  4025f5:	49 89 fe             	mov    %rdi,%r14
  4025f8:	48 89 f3             	mov    %rsi,%rbx
  4025fb:	49 89 d5             	mov    %rdx,%r13
  4025fe:	64 48 8b 04 25 28 00 	mov    %fs:0x28,%rax
  402605:	00 00 
  402607:	48 89 84 24 f8 03 00 	mov    %rax,0x3f8(%rsp)
  40260e:	00 
  40260f:	31 c0                	xor    %eax,%eax
  402611:	be 31 38 40 00       	mov    $0x403831,%esi
  402616:	48 89 df             	mov    %rbx,%rdi
  402619:	e8 c2 e9 ff ff       	callq  400fe0 <strstr@plt>
  40261e:	48 85 c0             	test   %rax,%rax
  402621:	75 08                	jne    40262b <jsonencode+0x47>
  402623:	41 bf 00 00 00 00    	mov    $0x0,%r15d
  402629:	eb 06                	jmp    402631 <jsonencode+0x4d>
  40262b:	41 bf 01 00 00 00    	mov    $0x1,%r15d
  402631:	48 89 e7             	mov    %rsp,%rdi
  402634:	b9 3e 00 00 00       	mov    $0x3e,%ecx
  402639:	b8 00 00 00 00       	mov    $0x0,%eax
  40263e:	f3 48 ab             	rep stos %rax,%es:(%rdi)
  402641:	c7 07 00 00 00 00    	movl   $0x0,(%rdi)
  402647:	48 c7 c1 ff ff ff ff 	mov    $0xffffffffffffffff,%rcx
  40264e:	48 89 df             	mov    %rbx,%rdi
  402651:	f2 ae                	repnz scas %es:(%rdi),%al
  402653:	48 f7 d1             	not    %rcx
  402656:	8d 71 ff             	lea    -0x1(%rcx),%esi
  402659:	b8 00 00 00 00       	mov    $0x0,%eax
  40265e:	bd 00 00 00 00       	mov    $0x0,%ebp
  402663:	b9 00 00 00 00       	mov    $0x0,%ecx
  402668:	eb 2c                	jmp    402696 <jsonencode+0xb2>
  40266a:	48 63 d0             	movslq %eax,%rdx
  40266d:	0f b6 14 13          	movzbl (%rbx,%rdx,1),%edx
  402671:	80 fa 3a             	cmp    $0x3a,%dl
  402674:	75 05                	jne    40267b <jsonencode+0x97>
  402676:	83 c1 01             	add    $0x1,%ecx
  402679:	eb 18                	jmp    402693 <jsonencode+0xaf>
  40267b:	83 f9 04             	cmp    $0x4,%ecx
  40267e:	75 05                	jne    402685 <jsonencode+0xa1>
  402680:	41 89 d4             	mov    %edx,%r12d
  402683:	eb 0e                	jmp    402693 <jsonencode+0xaf>
  402685:	83 f9 05             	cmp    $0x5,%ecx
  402688:	75 09                	jne    402693 <jsonencode+0xaf>
  40268a:	48 63 fd             	movslq %ebp,%rdi
  40268d:	88 14 3c             	mov    %dl,(%rsp,%rdi,1)
  402690:	83 c5 01             	add    $0x1,%ebp
  402693:	83 c0 01             	add    $0x1,%eax
  402696:	39 f0                	cmp    %esi,%eax
  402698:	7c d0                	jl     40266a <jsonencode+0x86>
  40269a:	be 97 3b 40 00       	mov    $0x403b97,%esi
  40269f:	48 89 df             	mov    %rbx,%rdi
  4026a2:	e8 39 e9 ff ff       	callq  400fe0 <strstr@plt>
  4026a7:	48 85 c0             	test   %rax,%rax
  4026aa:	75 2d                	jne    4026d9 <jsonencode+0xf5>
  4026ac:	41 8d 44 24 d0       	lea    -0x30(%r12),%eax
  4026b1:	3c 01                	cmp    $0x1,%al
  4026b3:	76 0e                	jbe    4026c3 <jsonencode+0xdf>
  4026b5:	41 80 fc 32          	cmp    $0x32,%r12b
  4026b9:	74 10                	je     4026cb <jsonencode+0xe7>
  4026bb:	41 80 fc 33          	cmp    $0x33,%r12b
  4026bf:	75 18                	jne    4026d9 <jsonencode+0xf5>
  4026c1:	eb 10                	jmp    4026d3 <jsonencode+0xef>
  4026c3:	41 bc 36 00 00 00    	mov    $0x36,%r12d
  4026c9:	eb 0e                	jmp    4026d9 <jsonencode+0xf5>
  4026cb:	41 bc 34 00 00 00    	mov    $0x34,%r12d
  4026d1:	eb 06                	jmp    4026d9 <jsonencode+0xf5>
  4026d3:	41 bc 35 00 00 00    	mov    $0x35,%r12d
  4026d9:	48 63 ed             	movslq %ebp,%rbp
  4026dc:	c6 04 2c 00          	movb   $0x0,(%rsp,%rbp,1)
  4026e0:	45 0f be e4          	movsbl %r12b,%r12d
  4026e4:	41 83 ec 30          	sub    $0x30,%r12d
  4026e8:	48 c7 84 24 00 02 00 	movq   $0x0,0x200(%rsp)
  4026ef:	00 00 00 00 00 
  4026f4:	48 8d bc 24 08 02 00 	lea    0x208(%rsp),%rdi
  4026fb:	00 
  4026fc:	b9 3d 00 00 00       	mov    $0x3d,%ecx
  402701:	b8 00 00 00 00       	mov    $0x0,%eax
  402706:	f3 48 ab             	rep stos %rax,%es:(%rdi)
  402709:	c7 07 00 00 00 00    	movl   $0x0,(%rdi)
  40270f:	48 8d 9c 24 00 02 00 	lea    0x200(%rsp),%rbx
  402716:	00 
  402717:	48 89 de             	mov    %rbx,%rsi
  40271a:	48 89 e7             	mov    %rsp,%rdi
  40271d:	e8 b5 fd ff ff       	callq  4024d7 <urlencode>
  402722:	53                   	push   %rbx
  402723:	41 57                	push   %r15
  402725:	45 89 e1             	mov    %r12d,%r9d
  402728:	4d 89 f0             	mov    %r14,%r8
  40272b:	b9 08 3b 40 00       	mov    $0x403b08,%ecx
  402730:	48 c7 c2 ff ff ff ff 	mov    $0xffffffffffffffff,%rdx
  402737:	be 01 00 00 00       	mov    $0x1,%esi
  40273c:	4c 89 ef             	mov    %r13,%rdi
  40273f:	b8 00 00 00 00       	mov    $0x0,%eax
  402744:	e8 a7 e8 ff ff       	callq  400ff0 <__sprintf_chk@plt>
  402749:	48 83 c4 10          	add    $0x10,%rsp
  40274d:	b8 00 00 00 00       	mov    $0x0,%eax
  402752:	48 8b b4 24 f8 03 00 	mov    0x3f8(%rsp),%rsi
  402759:	00 
  40275a:	64 48 33 34 25 28 00 	xor    %fs:0x28,%rsi
  402761:	00 00 
  402763:	74 05                	je     40276a <jsonencode+0x186>
  402765:	e8 b6 e6 ff ff       	callq  400e20 <__stack_chk_fail@plt>
  40276a:	48 81 c4 08 04 00 00 	add    $0x408,%rsp
  402771:	5b                   	pop    %rbx
  402772:	5d                   	pop    %rbp
  402773:	41 5c                	pop    %r12
  402775:	41 5d                	pop    %r13
  402777:	41 5e                	pop    %r14
  402779:	41 5f                	pop    %r15
  40277b:	c3                   	retq   

000000000040277c <thingy>:
  40277c:	55                   	push   %rbp
  40277d:	53                   	push   %rbx
  40277e:	48 81 ec 48 02 00 00 	sub    $0x248,%rsp
  402785:	49 89 f8             	mov    %rdi,%r8
  402788:	48 89 d5             	mov    %rdx,%rbp
  40278b:	64 48 8b 04 25 28 00 	mov    %fs:0x28,%rax
  402792:	00 00 
  402794:	48 89 84 24 38 02 00 	mov    %rax,0x238(%rsp)
  40279b:	00 
  40279c:	31 c0                	xor    %eax,%eax
  40279e:	48 8d 54 24 40       	lea    0x40(%rsp),%rdx
  4027a3:	48 89 d7             	mov    %rdx,%rdi
  4027a6:	b9 3e 00 00 00       	mov    $0x3e,%ecx
  4027ab:	f3 48 ab             	rep stos %rax,%es:(%rdi)
  4027ae:	c7 07 00 00 00 00    	movl   $0x0,(%rdi)
  4027b4:	48 c7 c1 ff ff ff ff 	mov    $0xffffffffffffffff,%rcx
  4027bb:	4c 89 c7             	mov    %r8,%rdi
  4027be:	f2 ae                	repnz scas %es:(%rdi),%al
  4027c0:	48 89 c8             	mov    %rcx,%rax
  4027c3:	48 f7 d0             	not    %rax
  4027c6:	8d 78 ff             	lea    -0x1(%rax),%edi
  4027c9:	b8 00 00 00 00       	mov    $0x0,%eax
  4027ce:	41 b9 00 00 00 00    	mov    $0x0,%r9d
  4027d4:	b9 00 00 00 00       	mov    $0x0,%ecx
  4027d9:	eb 26                	jmp    402801 <thingy+0x85>
  4027db:	48 63 d0             	movslq %eax,%rdx
  4027de:	41 0f b6 14 10       	movzbl (%r8,%rdx,1),%edx
  4027e3:	80 fa 3a             	cmp    $0x3a,%dl
  4027e6:	75 05                	jne    4027ed <thingy+0x71>
  4027e8:	83 c1 01             	add    $0x1,%ecx
  4027eb:	eb 11                	jmp    4027fe <thingy+0x82>
  4027ed:	83 f9 05             	cmp    $0x5,%ecx
  4027f0:	75 0c                	jne    4027fe <thingy+0x82>
  4027f2:	4d 63 d1             	movslq %r9d,%r10
  4027f5:	42 88 54 14 40       	mov    %dl,0x40(%rsp,%r10,1)
  4027fa:	41 83 c1 01          	add    $0x1,%r9d
  4027fe:	83 c0 01             	add    $0x1,%eax
  402801:	39 f8                	cmp    %edi,%eax
  402803:	7c d6                	jl     4027db <thingy+0x5f>
  402805:	4d 63 c9             	movslq %r9d,%r9
  402808:	42 c6 44 0c 40 00    	movb   $0x0,0x40(%rsp,%r9,1)
  40280e:	48 8d 7c 24 40       	lea    0x40(%rsp),%rdi
  402813:	b8 00 00 00 00       	mov    $0x0,%eax
  402818:	48 c7 c1 ff ff ff ff 	mov    $0xffffffffffffffff,%rcx
  40281f:	f2 ae                	repnz scas %es:(%rdi),%al
  402821:	48 89 c8             	mov    %rcx,%rax
  402824:	48 f7 d0             	not    %rax
  402827:	8d 48 ff             	lea    -0x1(%rax),%ecx
  40282a:	ba 00 00 00 00       	mov    $0x0,%edx
  40282f:	bb 00 00 00 00       	mov    $0x0,%ebx
  402834:	eb 47                	jmp    40287d <thingy+0x101>
  402836:	48 63 c2             	movslq %edx,%rax
  402839:	0f b6 44 04 40       	movzbl 0x40(%rsp,%rax,1),%eax
  40283e:	83 e8 31             	sub    $0x31,%eax
  402841:	3c 08                	cmp    $0x8,%al
  402843:	77 35                	ja     40287a <thingy+0xfe>
  402845:	0f b6 c0             	movzbl %al,%eax
  402848:	ff 24 c5 f8 3b 40 00 	jmpq   *0x403bf8(,%rax,8)
  40284f:	83 c3 01             	add    $0x1,%ebx
  402852:	eb 26                	jmp    40287a <thingy+0xfe>
  402854:	83 c3 02             	add    $0x2,%ebx
  402857:	eb 21                	jmp    40287a <thingy+0xfe>
  402859:	83 c3 03             	add    $0x3,%ebx
  40285c:	eb 1c                	jmp    40287a <thingy+0xfe>
  40285e:	83 c3 04             	add    $0x4,%ebx
  402861:	eb 17                	jmp    40287a <thingy+0xfe>
  402863:	83 c3 05             	add    $0x5,%ebx
  402866:	eb 12                	jmp    40287a <thingy+0xfe>
  402868:	83 c3 06             	add    $0x6,%ebx
  40286b:	eb 0d                	jmp    40287a <thingy+0xfe>
  40286d:	83 c3 07             	add    $0x7,%ebx
  402870:	eb 08                	jmp    40287a <thingy+0xfe>
  402872:	83 c3 08             	add    $0x8,%ebx
  402875:	eb 03                	jmp    40287a <thingy+0xfe>
  402877:	83 c3 09             	add    $0x9,%ebx
  40287a:	83 c2 01             	add    $0x1,%edx
  40287d:	39 ca                	cmp    %ecx,%edx
  40287f:	7c b5                	jl     402836 <thingy+0xba>
  402881:	b8 00 00 00 00       	mov    $0x0,%eax
  402886:	48 c7 c1 ff ff ff ff 	mov    $0xffffffffffffffff,%rcx
  40288d:	48 89 f7             	mov    %rsi,%rdi
  402890:	f2 ae                	repnz scas %es:(%rdi),%al
  402892:	48 89 c8             	mov    %rcx,%rax
  402895:	48 f7 d0             	not    %rax
  402898:	8d 48 ff             	lea    -0x1(%rax),%ecx
  40289b:	ba 00 00 00 00       	mov    $0x0,%edx
  4028a0:	eb 46                	jmp    4028e8 <thingy+0x16c>
  4028a2:	48 63 c2             	movslq %edx,%rax
  4028a5:	0f b6 04 06          	movzbl (%rsi,%rax,1),%eax
  4028a9:	83 e8 31             	sub    $0x31,%eax
  4028ac:	3c 08                	cmp    $0x8,%al
  4028ae:	77 35                	ja     4028e5 <thingy+0x169>
  4028b0:	0f b6 c0             	movzbl %al,%eax
  4028b3:	ff 24 c5 40 3c 40 00 	jmpq   *0x403c40(,%rax,8)
  4028ba:	83 c3 01             	add    $0x1,%ebx
  4028bd:	eb 26                	jmp    4028e5 <thingy+0x169>
  4028bf:	83 c3 02             	add    $0x2,%ebx
  4028c2:	eb 21                	jmp    4028e5 <thingy+0x169>
  4028c4:	83 c3 03             	add    $0x3,%ebx
  4028c7:	eb 1c                	jmp    4028e5 <thingy+0x169>
  4028c9:	83 c3 04             	add    $0x4,%ebx
  4028cc:	eb 17                	jmp    4028e5 <thingy+0x169>
  4028ce:	83 c3 05             	add    $0x5,%ebx
  4028d1:	eb 12                	jmp    4028e5 <thingy+0x169>
  4028d3:	83 c3 06             	add    $0x6,%ebx
  4028d6:	eb 0d                	jmp    4028e5 <thingy+0x169>
  4028d8:	83 c3 07             	add    $0x7,%ebx
  4028db:	eb 08                	jmp    4028e5 <thingy+0x169>
  4028dd:	83 c3 08             	add    $0x8,%ebx
  4028e0:	eb 03                	jmp    4028e5 <thingy+0x169>
  4028e2:	83 c3 09             	add    $0x9,%ebx
  4028e5:	83 c2 01             	add    $0x1,%edx
  4028e8:	39 ca                	cmp    %ecx,%edx
  4028ea:	7c b6                	jl     4028a2 <thingy+0x126>
  4028ec:	ba 32 00 00 00       	mov    $0x32,%edx
  4028f1:	be a1 3b 40 00       	mov    $0x403ba1,%esi
  4028f6:	48 89 e7             	mov    %rsp,%rdi
  4028f9:	e8 a2 e4 ff ff       	callq  400da0 <__strcat_chk@plt>
  4028fe:	41 89 d8             	mov    %ebx,%r8d
  402901:	b9 52 37 40 00       	mov    $0x403752,%ecx
  402906:	ba 32 00 00 00       	mov    $0x32,%edx
  40290b:	be 01 00 00 00       	mov    $0x1,%esi
  402910:	48 89 e7             	mov    %rsp,%rdi
  402913:	b8 00 00 00 00       	mov    $0x0,%eax
  402918:	e8 d3 e6 ff ff       	callq  400ff0 <__sprintf_chk@plt>
  40291d:	48 89 e6             	mov    %rsp,%rsi
  402920:	48 89 ef             	mov    %rbp,%rdi
  402923:	e8 b8 e6 ff ff       	callq  400fe0 <strstr@plt>
  402928:	48 85 c0             	test   %rax,%rax
  40292b:	74 07                	je     402934 <thingy+0x1b8>
  40292d:	b8 01 00 00 00       	mov    $0x1,%eax
  402932:	eb 05                	jmp    402939 <thingy+0x1bd>
  402934:	b8 00 00 00 00       	mov    $0x0,%eax
  402939:	48 8b b4 24 38 02 00 	mov    0x238(%rsp),%rsi
  402940:	00 
  402941:	64 48 33 34 25 28 00 	xor    %fs:0x28,%rsi
  402948:	00 00 
  40294a:	74 05                	je     402951 <thingy+0x1d5>
  40294c:	e8 cf e4 ff ff       	callq  400e20 <__stack_chk_fail@plt>
  402951:	48 81 c4 48 02 00 00 	add    $0x248,%rsp
  402958:	5b                   	pop    %rbx
  402959:	5d                   	pop    %rbp
  40295a:	c3                   	retq   

000000000040295b <readServerStatus>:
  40295b:	41 55                	push   %r13
  40295d:	41 54                	push   %r12
  40295f:	55                   	push   %rbp
  402960:	53                   	push   %rbx
  402961:	48 83 ec 08          	sub    $0x8,%rsp
  402965:	49 89 f4             	mov    %rsi,%r12
  402968:	49 89 d5             	mov    %rdx,%r13
  40296b:	48 89 cd             	mov    %rcx,%rbp
  40296e:	48 8d 5f 10          	lea    0x10(%rdi),%rbx
  402972:	be b0 3b 40 00       	mov    $0x403bb0,%esi
  402977:	48 89 df             	mov    %rbx,%rdi
  40297a:	e8 61 e6 ff ff       	callq  400fe0 <strstr@plt>
  40297f:	48 85 c0             	test   %rax,%rax
  402982:	74 26                	je     4029aa <readServerStatus+0x4f>
  402984:	48 89 da             	mov    %rbx,%rdx
  402987:	4c 89 ee             	mov    %r13,%rsi
  40298a:	48 89 ef             	mov    %rbp,%rdi
  40298d:	e8 ea fd ff ff       	callq  40277c <thingy>
  402992:	85 c0                	test   %eax,%eax
  402994:	74 19                	je     4029af <readServerStatus+0x54>
  402996:	66 41 c7 04 24 4f 4b 	movw   $0x4b4f,(%r12)
  40299d:	41 c6 44 24 02 00    	movb   $0x0,0x2(%r12)
  4029a3:	b8 01 00 00 00       	mov    $0x1,%eax
  4029a8:	eb 05                	jmp    4029af <readServerStatus+0x54>
  4029aa:	b8 00 00 00 00       	mov    $0x0,%eax
  4029af:	48 83 c4 08          	add    $0x8,%rsp
  4029b3:	5b                   	pop    %rbx
  4029b4:	5d                   	pop    %rbp
  4029b5:	41 5c                	pop    %r12
  4029b7:	41 5d                	pop    %r13
  4029b9:	c3                   	retq   

00000000004029ba <submitr>:
  4029ba:	41 57                	push   %r15
  4029bc:	41 56                	push   %r14
  4029be:	41 55                	push   %r13
  4029c0:	41 54                	push   %r12
  4029c2:	55                   	push   %rbp
  4029c3:	53                   	push   %rbx
  4029c4:	48 81 ec 68 a0 00 00 	sub    $0xa068,%rsp
  4029cb:	49 89 ff             	mov    %rdi,%r15
  4029ce:	89 f5                	mov    %esi,%ebp
  4029d0:	48 89 54 24 08       	mov    %rdx,0x8(%rsp)
  4029d5:	4d 89 c6             	mov    %r8,%r14
  4029d8:	4d 89 cd             	mov    %r9,%r13
  4029db:	48 8b 9c 24 a0 a0 00 	mov    0xa0a0(%rsp),%rbx
  4029e2:	00 
  4029e3:	64 48 8b 04 25 28 00 	mov    %fs:0x28,%rax
  4029ea:	00 00 
  4029ec:	48 89 84 24 58 a0 00 	mov    %rax,0xa058(%rsp)
  4029f3:	00 
  4029f4:	31 c0                	xor    %eax,%eax
  4029f6:	49 89 c8             	mov    %rcx,%r8
  4029f9:	b9 11 37 40 00       	mov    $0x403711,%ecx
  4029fe:	ba 0b 00 00 00       	mov    $0xb,%edx
  402a03:	be 01 00 00 00       	mov    $0x1,%esi
  402a08:	48 8d bc 24 40 20 00 	lea    0x2040(%rsp),%rdi
  402a0f:	00 
  402a10:	e8 db e5 ff ff       	callq  400ff0 <__sprintf_chk@plt>
  402a15:	c7 44 24 1c 00 00 00 	movl   $0x0,0x1c(%rsp)
  402a1c:	00 
  402a1d:	ba 00 00 00 00       	mov    $0x0,%edx
  402a22:	be 01 00 00 00       	mov    $0x1,%esi
  402a27:	bf 02 00 00 00       	mov    $0x2,%edi
  402a2c:	e8 cf e5 ff ff       	callq  401000 <socket@plt>
  402a31:	85 c0                	test   %eax,%eax
  402a33:	79 4e                	jns    402a83 <submitr+0xc9>
  402a35:	48 b8 45 72 72 6f 72 	movabs $0x43203a726f727245,%rax
  402a3c:	3a 20 43 
  402a3f:	48 89 03             	mov    %rax,(%rbx)
  402a42:	48 b8 6c 69 65 6e 74 	movabs $0x6e7520746e65696c,%rax
  402a49:	20 75 6e 
  402a4c:	48 89 43 08          	mov    %rax,0x8(%rbx)
  402a50:	48 b8 61 62 6c 65 20 	movabs $0x206f7420656c6261,%rax
  402a57:	74 6f 20 
  402a5a:	48 89 43 10          	mov    %rax,0x10(%rbx)
  402a5e:	48 b8 63 72 65 61 74 	movabs $0x7320657461657263,%rax
  402a65:	65 20 73 
  402a68:	48 89 43 18          	mov    %rax,0x18(%rbx)
  402a6c:	c7 43 20 6f 63 6b 65 	movl   $0x656b636f,0x20(%rbx)
  402a73:	66 c7 43 24 74 00    	movw   $0x74,0x24(%rbx)
  402a79:	b8 ff ff ff ff       	mov    $0xffffffff,%eax
  402a7e:	e9 53 06 00 00       	jmpq   4030d6 <submitr+0x71c>
  402a83:	41 89 c4             	mov    %eax,%r12d
  402a86:	4c 89 ff             	mov    %r15,%rdi
  402a89:	e8 22 e4 ff ff       	callq  400eb0 <gethostbyname@plt>
  402a8e:	48 85 c0             	test   %rax,%rax
  402a91:	75 68                	jne    402afb <submitr+0x141>
  402a93:	48 b8 45 72 72 6f 72 	movabs $0x44203a726f727245,%rax
  402a9a:	3a 20 44 
  402a9d:	48 89 03             	mov    %rax,(%rbx)
  402aa0:	48 b8 4e 53 20 69 73 	movabs $0x6e7520736920534e,%rax
  402aa7:	20 75 6e 
  402aaa:	48 89 43 08          	mov    %rax,0x8(%rbx)
  402aae:	48 b8 61 62 6c 65 20 	movabs $0x206f7420656c6261,%rax
  402ab5:	74 6f 20 
  402ab8:	48 89 43 10          	mov    %rax,0x10(%rbx)
  402abc:	48 b8 72 65 73 6f 6c 	movabs $0x2065766c6f736572,%rax
  402ac3:	76 65 20 
  402ac6:	48 89 43 18          	mov    %rax,0x18(%rbx)
  402aca:	48 b8 73 65 72 76 65 	movabs $0x6120726576726573,%rax
  402ad1:	72 20 61 
  402ad4:	48 89 43 20          	mov    %rax,0x20(%rbx)
  402ad8:	c7 43 28 64 64 72 65 	movl   $0x65726464,0x28(%rbx)
  402adf:	66 c7 43 2c 73 73    	movw   $0x7373,0x2c(%rbx)
  402ae5:	c6 43 2e 00          	movb   $0x0,0x2e(%rbx)
  402ae9:	44 89 e7             	mov    %r12d,%edi
  402aec:	e8 6f e3 ff ff       	callq  400e60 <close@plt>
  402af1:	b8 ff ff ff ff       	mov    $0xffffffff,%eax
  402af6:	e9 db 05 00 00       	jmpq   4030d6 <submitr+0x71c>
  402afb:	48 c7 44 24 20 00 00 	movq   $0x0,0x20(%rsp)
  402b02:	00 00 
  402b04:	48 c7 44 24 28 00 00 	movq   $0x0,0x28(%rsp)
  402b0b:	00 00 
  402b0d:	66 c7 44 24 20 02 00 	movw   $0x2,0x20(%rsp)
  402b14:	48 63 50 14          	movslq 0x14(%rax),%rdx
  402b18:	48 8b 40 18          	mov    0x18(%rax),%rax
  402b1c:	48 8b 30             	mov    (%rax),%rsi
  402b1f:	48 8d 7c 24 24       	lea    0x24(%rsp),%rdi
  402b24:	b9 0c 00 00 00       	mov    $0xc,%ecx
  402b29:	e8 92 e3 ff ff       	callq  400ec0 <__memmove_chk@plt>
  402b2e:	66 c1 cd 08          	ror    $0x8,%bp
  402b32:	66 89 6c 24 22       	mov    %bp,0x22(%rsp)
  402b37:	ba 10 00 00 00       	mov    $0x10,%edx
  402b3c:	48 8d 74 24 20       	lea    0x20(%rsp),%rsi
  402b41:	44 89 e7             	mov    %r12d,%edi
  402b44:	e8 77 e4 ff ff       	callq  400fc0 <connect@plt>
  402b49:	85 c0                	test   %eax,%eax
  402b4b:	79 5a                	jns    402ba7 <submitr+0x1ed>
  402b4d:	48 b8 45 72 72 6f 72 	movabs $0x55203a726f727245,%rax
  402b54:	3a 20 55 
  402b57:	48 89 03             	mov    %rax,(%rbx)
  402b5a:	48 b8 6e 61 62 6c 65 	movabs $0x6f7420656c62616e,%rax
  402b61:	20 74 6f 
  402b64:	48 89 43 08          	mov    %rax,0x8(%rbx)
  402b68:	48 b8 20 63 6f 6e 6e 	movabs $0x7463656e6e6f6320,%rax
  402b6f:	65 63 74 
  402b72:	48 89 43 10          	mov    %rax,0x10(%rbx)
  402b76:	48 b8 20 74 6f 20 74 	movabs $0x20656874206f7420,%rax
  402b7d:	68 65 20 
  402b80:	48 89 43 18          	mov    %rax,0x18(%rbx)
  402b84:	c7 43 20 73 65 72 76 	movl   $0x76726573,0x20(%rbx)
  402b8b:	66 c7 43 24 65 72    	movw   $0x7265,0x24(%rbx)
  402b91:	c6 43 26 00          	movb   $0x0,0x26(%rbx)
  402b95:	44 89 e7             	mov    %r12d,%edi
  402b98:	e8 c3 e2 ff ff       	callq  400e60 <close@plt>
  402b9d:	b8 ff ff ff ff       	mov    $0xffffffff,%eax
  402ba2:	e9 2f 05 00 00       	jmpq   4030d6 <submitr+0x71c>
  402ba7:	49 c7 c0 ff ff ff ff 	mov    $0xffffffffffffffff,%r8
  402bae:	b8 00 00 00 00       	mov    $0x0,%eax
  402bb3:	4c 89 c1             	mov    %r8,%rcx
  402bb6:	4c 89 ef             	mov    %r13,%rdi
  402bb9:	f2 ae                	repnz scas %es:(%rdi),%al
  402bbb:	48 f7 d1             	not    %rcx
  402bbe:	48 89 ce             	mov    %rcx,%rsi
  402bc1:	4c 89 c1             	mov    %r8,%rcx
  402bc4:	48 8b 7c 24 08       	mov    0x8(%rsp),%rdi
  402bc9:	f2 ae                	repnz scas %es:(%rdi),%al
  402bcb:	48 f7 d1             	not    %rcx
  402bce:	48 89 ca             	mov    %rcx,%rdx
  402bd1:	48 8d bc 24 40 20 00 	lea    0x2040(%rsp),%rdi
  402bd8:	00 
  402bd9:	4c 89 c1             	mov    %r8,%rcx
  402bdc:	f2 ae                	repnz scas %es:(%rdi),%al
  402bde:	48 f7 d1             	not    %rcx
  402be1:	48 8d 54 0a fe       	lea    -0x2(%rdx,%rcx,1),%rdx
  402be6:	4c 89 c1             	mov    %r8,%rcx
  402be9:	4c 89 f7             	mov    %r14,%rdi
  402bec:	f2 ae                	repnz scas %es:(%rdi),%al
  402bee:	48 89 c8             	mov    %rcx,%rax
  402bf1:	48 f7 d0             	not    %rax
  402bf4:	48 8d 54 02 ff       	lea    -0x1(%rdx,%rax,1),%rdx
  402bf9:	48 8d 44 76 fd       	lea    -0x3(%rsi,%rsi,2),%rax
  402bfe:	48 8d 84 02 80 00 00 	lea    0x80(%rdx,%rax,1),%rax
  402c05:	00 
  402c06:	48 3d 00 20 00 00    	cmp    $0x2000,%rax
  402c0c:	76 73                	jbe    402c81 <submitr+0x2c7>
  402c0e:	48 b8 45 72 72 6f 72 	movabs $0x52203a726f727245,%rax
  402c15:	3a 20 52 
  402c18:	48 89 03             	mov    %rax,(%rbx)
  402c1b:	48 b8 65 73 75 6c 74 	movabs $0x747320746c757365,%rax
  402c22:	20 73 74 
  402c25:	48 89 43 08          	mov    %rax,0x8(%rbx)
  402c29:	48 b8 72 69 6e 67 20 	movabs $0x6f6f7420676e6972,%rax
  402c30:	74 6f 6f 
  402c33:	48 89 43 10          	mov    %rax,0x10(%rbx)
  402c37:	48 b8 20 6c 61 72 67 	movabs $0x202e656772616c20,%rax
  402c3e:	65 2e 20 
  402c41:	48 89 43 18          	mov    %rax,0x18(%rbx)
  402c45:	48 b8 49 6e 63 72 65 	movabs $0x6573616572636e49,%rax
  402c4c:	61 73 65 
  402c4f:	48 89 43 20          	mov    %rax,0x20(%rbx)
  402c53:	48 b8 20 53 55 42 4d 	movabs $0x5254494d42555320,%rax
  402c5a:	49 54 52 
  402c5d:	48 89 43 28          	mov    %rax,0x28(%rbx)
  402c61:	48 b8 5f 4d 41 58 42 	movabs $0x46554258414d5f,%rax
  402c68:	55 46 00 
  402c6b:	48 89 43 30          	mov    %rax,0x30(%rbx)
  402c6f:	44 89 e7             	mov    %r12d,%edi
  402c72:	e8 e9 e1 ff ff       	callq  400e60 <close@plt>
  402c77:	b8 ff ff ff ff       	mov    $0xffffffff,%eax
  402c7c:	e9 55 04 00 00       	jmpq   4030d6 <submitr+0x71c>
  402c81:	48 8d 94 24 50 40 00 	lea    0x4050(%rsp),%rdx
  402c88:	00 
  402c89:	4c 89 ee             	mov    %r13,%rsi
  402c8c:	48 8d bc 24 40 20 00 	lea    0x2040(%rsp),%rdi
  402c93:	00 
  402c94:	e8 4b f9 ff ff       	callq  4025e4 <jsonencode>
  402c99:	85 c0                	test   %eax,%eax
  402c9b:	79 62                	jns    402cff <submitr+0x345>
  402c9d:	48 b8 45 72 72 6f 72 	movabs $0x43203a726f727245,%rax
  402ca4:	3a 20 43 
  402ca7:	48 89 03             	mov    %rax,(%rbx)
  402caa:	48 b8 6f 75 6c 64 20 	movabs $0x746f6e20646c756f,%rax
  402cb1:	6e 6f 74 
  402cb4:	48 89 43 08          	mov    %rax,0x8(%rbx)
  402cb8:	48 b8 20 4a 53 4f 4e 	movabs $0x6e65204e4f534a20,%rax
  402cbf:	20 65 6e 
  402cc2:	48 89 43 10          	mov    %rax,0x10(%rbx)
  402cc6:	48 b8 63 6f 64 65 20 	movabs $0x7365722065646f63,%rax
  402ccd:	72 65 73 
  402cd0:	48 89 43 18          	mov    %rax,0x18(%rbx)
  402cd4:	48 b8 75 6c 74 73 20 	movabs $0x7274732073746c75,%rax
  402cdb:	73 74 72 
  402cde:	48 89 43 20          	mov    %rax,0x20(%rbx)
  402ce2:	c7 43 28 69 6e 67 2e 	movl   $0x2e676e69,0x28(%rbx)
  402ce9:	c6 43 2c 00          	movb   $0x0,0x2c(%rbx)
  402ced:	44 89 e7             	mov    %r12d,%edi
  402cf0:	e8 6b e1 ff ff       	callq  400e60 <close@plt>
  402cf5:	b8 ff ff ff ff       	mov    $0xffffffff,%eax
  402cfa:	e9 d7 03 00 00       	jmpq   4030d6 <submitr+0x71c>
  402cff:	48 8d ac 24 50 20 00 	lea    0x2050(%rsp),%rbp
  402d06:	00 
  402d07:	4c 8d 84 24 50 40 00 	lea    0x4050(%rsp),%r8
  402d0e:	00 
  402d0f:	b9 38 3b 40 00       	mov    $0x403b38,%ecx
  402d14:	ba 00 20 00 00       	mov    $0x2000,%edx
  402d19:	be 01 00 00 00       	mov    $0x1,%esi
  402d1e:	48 89 ef             	mov    %rbp,%rdi
  402d21:	b8 00 00 00 00       	mov    $0x0,%eax
  402d26:	e8 c5 e2 ff ff       	callq  400ff0 <__sprintf_chk@plt>
  402d2b:	b8 00 00 00 00       	mov    $0x0,%eax
  402d30:	48 c7 c1 ff ff ff ff 	mov    $0xffffffffffffffff,%rcx
  402d37:	48 89 ef             	mov    %rbp,%rdi
  402d3a:	f2 ae                	repnz scas %es:(%rdi),%al
  402d3c:	48 f7 d1             	not    %rcx
  402d3f:	48 8d 51 ff          	lea    -0x1(%rcx),%rdx
  402d43:	48 89 ee             	mov    %rbp,%rsi
  402d46:	44 89 e7             	mov    %r12d,%edi
  402d49:	e8 f8 f5 ff ff       	callq  402346 <rio_writen>
  402d4e:	48 85 c0             	test   %rax,%rax
  402d51:	79 6f                	jns    402dc2 <submitr+0x408>
  402d53:	48 b8 45 72 72 6f 72 	movabs $0x43203a726f727245,%rax
  402d5a:	3a 20 43 
  402d5d:	48 89 03             	mov    %rax,(%rbx)
  402d60:	48 b8 6c 69 65 6e 74 	movabs $0x6e7520746e65696c,%rax
  402d67:	20 75 6e 
  402d6a:	48 89 43 08          	mov    %rax,0x8(%rbx)
  402d6e:	48 b8 61 62 6c 65 20 	movabs $0x206f7420656c6261,%rax
  402d75:	74 6f 20 
  402d78:	48 89 43 10          	mov    %rax,0x10(%rbx)
  402d7c:	48 b8 77 72 69 74 65 	movabs $0x6f74206574697277,%rax
  402d83:	20 74 6f 
  402d86:	48 89 43 18          	mov    %rax,0x18(%rbx)
  402d8a:	48 b8 20 74 68 65 20 	movabs $0x7365722065687420,%rax
  402d91:	72 65 73 
  402d94:	48 89 43 20          	mov    %rax,0x20(%rbx)
  402d98:	48 b8 75 6c 74 20 73 	movabs $0x7672657320746c75,%rax
  402d9f:	65 72 76 
  402da2:	48 89 43 28          	mov    %rax,0x28(%rbx)
  402da6:	66 c7 43 30 65 72    	movw   $0x7265,0x30(%rbx)
  402dac:	c6 43 32 00          	movb   $0x0,0x32(%rbx)
  402db0:	44 89 e7             	mov    %r12d,%edi
  402db3:	e8 a8 e0 ff ff       	callq  400e60 <close@plt>
  402db8:	b8 ff ff ff ff       	mov    $0xffffffff,%eax
  402dbd:	e9 14 03 00 00       	jmpq   4030d6 <submitr+0x71c>
  402dc2:	44 89 e6             	mov    %r12d,%esi
  402dc5:	48 8d 7c 24 30       	lea    0x30(%rsp),%rdi
  402dca:	e8 37 f5 ff ff       	callq  402306 <rio_readinitb>
  402dcf:	ba 00 20 00 00       	mov    $0x2000,%edx
  402dd4:	48 8d b4 24 50 20 00 	lea    0x2050(%rsp),%rsi
  402ddb:	00 
  402ddc:	48 8d 7c 24 30       	lea    0x30(%rsp),%rdi
  402de1:	e8 47 f6 ff ff       	callq  40242d <rio_readlineb>
  402de6:	48 85 c0             	test   %rax,%rax
  402de9:	7f 7e                	jg     402e69 <submitr+0x4af>
  402deb:	48 b8 45 72 72 6f 72 	movabs $0x43203a726f727245,%rax
  402df2:	3a 20 43 
  402df5:	48 89 03             	mov    %rax,(%rbx)
  402df8:	48 b8 6c 69 65 6e 74 	movabs $0x6e7520746e65696c,%rax
  402dff:	20 75 6e 
  402e02:	48 89 43 08          	mov    %rax,0x8(%rbx)
  402e06:	48 b8 61 62 6c 65 20 	movabs $0x206f7420656c6261,%rax
  402e0d:	74 6f 20 
  402e10:	48 89 43 10          	mov    %rax,0x10(%rbx)
  402e14:	48 b8 72 65 61 64 20 	movabs $0x7269662064616572,%rax
  402e1b:	66 69 72 
  402e1e:	48 89 43 18          	mov    %rax,0x18(%rbx)
  402e22:	48 b8 73 74 20 68 65 	movabs $0x6564616568207473,%rax
  402e29:	61 64 65 
  402e2c:	48 89 43 20          	mov    %rax,0x20(%rbx)
  402e30:	48 b8 72 20 66 72 6f 	movabs $0x72206d6f72662072,%rax
  402e37:	6d 20 72 
  402e3a:	48 89 43 28          	mov    %rax,0x28(%rbx)
  402e3e:	48 b8 65 73 75 6c 74 	movabs $0x657320746c757365,%rax
  402e45:	20 73 65 
  402e48:	48 89 43 30          	mov    %rax,0x30(%rbx)
  402e4c:	c7 43 38 72 76 65 72 	movl   $0x72657672,0x38(%rbx)
  402e53:	c6 43 3c 00          	movb   $0x0,0x3c(%rbx)
  402e57:	44 89 e7             	mov    %r12d,%edi
  402e5a:	e8 01 e0 ff ff       	callq  400e60 <close@plt>
  402e5f:	b8 ff ff ff ff       	mov    $0xffffffff,%eax
  402e64:	e9 6d 02 00 00       	jmpq   4030d6 <submitr+0x71c>
  402e69:	4c 8d 84 24 50 80 00 	lea    0x8050(%rsp),%r8
  402e70:	00 
  402e71:	48 8d 4c 24 1c       	lea    0x1c(%rsp),%rcx
  402e76:	48 8d 94 24 50 60 00 	lea    0x6050(%rsp),%rdx
  402e7d:	00 
  402e7e:	be c0 3b 40 00       	mov    $0x403bc0,%esi
  402e83:	48 8d bc 24 50 20 00 	lea    0x2050(%rsp),%rdi
  402e8a:	00 
  402e8b:	b8 00 00 00 00       	mov    $0x0,%eax
  402e90:	e8 8b e0 ff ff       	callq  400f20 <__isoc99_sscanf@plt>
  402e95:	e9 96 00 00 00       	jmpq   402f30 <submitr+0x576>
  402e9a:	ba 00 20 00 00       	mov    $0x2000,%edx
  402e9f:	48 8d b4 24 50 20 00 	lea    0x2050(%rsp),%rsi
  402ea6:	00 
  402ea7:	48 8d 7c 24 30       	lea    0x30(%rsp),%rdi
  402eac:	e8 7c f5 ff ff       	callq  40242d <rio_readlineb>
  402eb1:	48 85 c0             	test   %rax,%rax
  402eb4:	7f 7a                	jg     402f30 <submitr+0x576>
  402eb6:	48 b8 45 72 72 6f 72 	movabs $0x43203a726f727245,%rax
  402ebd:	3a 20 43 
  402ec0:	48 89 03             	mov    %rax,(%rbx)
  402ec3:	48 b8 6c 69 65 6e 74 	movabs $0x6e7520746e65696c,%rax
  402eca:	20 75 6e 
  402ecd:	48 89 43 08          	mov    %rax,0x8(%rbx)
  402ed1:	48 b8 61 62 6c 65 20 	movabs $0x206f7420656c6261,%rax
  402ed8:	74 6f 20 
  402edb:	48 89 43 10          	mov    %rax,0x10(%rbx)
  402edf:	48 b8 72 65 61 64 20 	movabs $0x6165682064616572,%rax
  402ee6:	68 65 61 
  402ee9:	48 89 43 18          	mov    %rax,0x18(%rbx)
  402eed:	48 b8 64 65 72 73 20 	movabs $0x6f72662073726564,%rax
  402ef4:	66 72 6f 
  402ef7:	48 89 43 20          	mov    %rax,0x20(%rbx)
  402efb:	48 b8 6d 20 74 68 65 	movabs $0x657220656874206d,%rax
  402f02:	20 72 65 
  402f05:	48 89 43 28          	mov    %rax,0x28(%rbx)
  402f09:	48 b8 73 75 6c 74 20 	movabs $0x72657320746c7573,%rax
  402f10:	73 65 72 
  402f13:	48 89 43 30          	mov    %rax,0x30(%rbx)
  402f17:	c7 43 38 76 65 72 00 	movl   $0x726576,0x38(%rbx)
  402f1e:	44 89 e7             	mov    %r12d,%edi
  402f21:	e8 3a df ff ff       	callq  400e60 <close@plt>
  402f26:	b8 ff ff ff ff       	mov    $0xffffffff,%eax
  402f2b:	e9 a6 01 00 00       	jmpq   4030d6 <submitr+0x71c>
  402f30:	0f b6 94 24 50 20 00 	movzbl 0x2050(%rsp),%edx
  402f37:	00 
  402f38:	b8 0d 00 00 00       	mov    $0xd,%eax
  402f3d:	29 d0                	sub    %edx,%eax
  402f3f:	75 1b                	jne    402f5c <submitr+0x5a2>
  402f41:	0f b6 94 24 51 20 00 	movzbl 0x2051(%rsp),%edx
  402f48:	00 
  402f49:	b8 0a 00 00 00       	mov    $0xa,%eax
  402f4e:	29 d0                	sub    %edx,%eax
  402f50:	75 0a                	jne    402f5c <submitr+0x5a2>
  402f52:	0f b6 84 24 52 20 00 	movzbl 0x2052(%rsp),%eax
  402f59:	00 
  402f5a:	f7 d8                	neg    %eax
  402f5c:	85 c0                	test   %eax,%eax
  402f5e:	0f 85 36 ff ff ff    	jne    402e9a <submitr+0x4e0>
  402f64:	4c 89 e9             	mov    %r13,%rcx
  402f67:	48 8d 94 24 40 20 00 	lea    0x2040(%rsp),%rdx
  402f6e:	00 
  402f6f:	48 8d b4 24 50 20 00 	lea    0x2050(%rsp),%rsi
  402f76:	00 
  402f77:	48 8d 7c 24 30       	lea    0x30(%rsp),%rdi
  402f7c:	e8 da f9 ff ff       	callq  40295b <readServerStatus>
  402f81:	85 c0                	test   %eax,%eax
  402f83:	75 73                	jne    402ff8 <submitr+0x63e>
  402f85:	48 b8 45 72 72 6f 72 	movabs $0x43203a726f727245,%rax
  402f8c:	3a 20 43 
  402f8f:	48 89 03             	mov    %rax,(%rbx)
  402f92:	48 b8 6c 69 65 6e 74 	movabs $0x6e7520746e65696c,%rax
  402f99:	20 75 6e 
  402f9c:	48 89 43 08          	mov    %rax,0x8(%rbx)
  402fa0:	48 b8 61 62 6c 65 20 	movabs $0x206f7420656c6261,%rax
  402fa7:	74 6f 20 
  402faa:	48 89 43 10          	mov    %rax,0x10(%rbx)
  402fae:	48 b8 72 65 61 64 20 	movabs $0x6174732064616572,%rax
  402fb5:	73 74 61 
  402fb8:	48 89 43 18          	mov    %rax,0x18(%rbx)
  402fbc:	48 b8 74 75 73 20 6d 	movabs $0x7373656d20737574,%rax
  402fc3:	65 73 73 
  402fc6:	48 89 43 20          	mov    %rax,0x20(%rbx)
  402fca:	48 b8 61 67 65 20 66 	movabs $0x6d6f726620656761,%rax
  402fd1:	72 6f 6d 
  402fd4:	48 89 43 28          	mov    %rax,0x28(%rbx)
  402fd8:	48 b8 20 73 65 72 76 	movabs $0x72657672657320,%rax
  402fdf:	65 72 00 
  402fe2:	48 89 43 30          	mov    %rax,0x30(%rbx)
  402fe6:	44 89 e7             	mov    %r12d,%edi
  402fe9:	e8 72 de ff ff       	callq  400e60 <close@plt>
  402fee:	b8 ff ff ff ff       	mov    $0xffffffff,%eax
  402ff3:	e9 de 00 00 00       	jmpq   4030d6 <submitr+0x71c>
  402ff8:	44 8b 44 24 1c       	mov    0x1c(%rsp),%r8d
  402ffd:	41 81 f8 c8 00 00 00 	cmp    $0xc8,%r8d
  403004:	74 38                	je     40303e <submitr+0x684>
  403006:	4c 8d 8c 24 50 80 00 	lea    0x8050(%rsp),%r9
  40300d:	00 
  40300e:	b9 60 3b 40 00       	mov    $0x403b60,%ecx
  403013:	48 c7 c2 ff ff ff ff 	mov    $0xffffffffffffffff,%rdx
  40301a:	be 01 00 00 00       	mov    $0x1,%esi
  40301f:	48 89 df             	mov    %rbx,%rdi
  403022:	b8 00 00 00 00       	mov    $0x0,%eax
  403027:	e8 c4 df ff ff       	callq  400ff0 <__sprintf_chk@plt>
  40302c:	44 89 e7             	mov    %r12d,%edi
  40302f:	e8 2c de ff ff       	callq  400e60 <close@plt>
  403034:	b8 ff ff ff ff       	mov    $0xffffffff,%eax
  403039:	e9 98 00 00 00       	jmpq   4030d6 <submitr+0x71c>
  40303e:	48 8d b4 24 50 20 00 	lea    0x2050(%rsp),%rsi
  403045:	00 
  403046:	48 89 df             	mov    %rbx,%rdi
  403049:	e8 a2 dd ff ff       	callq  400df0 <strcpy@plt>
  40304e:	44 89 e7             	mov    %r12d,%edi
  403051:	e8 0a de ff ff       	callq  400e60 <close@plt>
  403056:	0f b6 03             	movzbl (%rbx),%eax
  403059:	ba 4f 00 00 00       	mov    $0x4f,%edx
  40305e:	29 c2                	sub    %eax,%edx
  403060:	75 22                	jne    403084 <submitr+0x6ca>
  403062:	0f b6 4b 01          	movzbl 0x1(%rbx),%ecx
  403066:	b8 4b 00 00 00       	mov    $0x4b,%eax
  40306b:	29 c8                	sub    %ecx,%eax
  40306d:	75 17                	jne    403086 <submitr+0x6cc>
  40306f:	0f b6 4b 02          	movzbl 0x2(%rbx),%ecx
  403073:	b8 0a 00 00 00       	mov    $0xa,%eax
  403078:	29 c8                	sub    %ecx,%eax
  40307a:	75 0a                	jne    403086 <submitr+0x6cc>
  40307c:	0f b6 43 03          	movzbl 0x3(%rbx),%eax
  403080:	f7 d8                	neg    %eax
  403082:	eb 02                	jmp    403086 <submitr+0x6cc>
  403084:	89 d0                	mov    %edx,%eax
  403086:	85 c0                	test   %eax,%eax
  403088:	74 40                	je     4030ca <submitr+0x710>
  40308a:	bf d1 3b 40 00       	mov    $0x403bd1,%edi
  40308f:	b9 05 00 00 00       	mov    $0x5,%ecx
  403094:	48 89 de             	mov    %rbx,%rsi
  403097:	f3 a6                	repz cmpsb %es:(%rdi),%ds:(%rsi)
  403099:	0f 97 c0             	seta   %al
  40309c:	0f 92 c1             	setb   %cl
  40309f:	29 c8                	sub    %ecx,%eax
  4030a1:	0f be c0             	movsbl %al,%eax
  4030a4:	85 c0                	test   %eax,%eax
  4030a6:	74 2e                	je     4030d6 <submitr+0x71c>
  4030a8:	85 d2                	test   %edx,%edx
  4030aa:	75 13                	jne    4030bf <submitr+0x705>
  4030ac:	0f b6 43 01          	movzbl 0x1(%rbx),%eax
  4030b0:	ba 4b 00 00 00       	mov    $0x4b,%edx
  4030b5:	29 c2                	sub    %eax,%edx
  4030b7:	75 06                	jne    4030bf <submitr+0x705>
  4030b9:	0f b6 53 02          	movzbl 0x2(%rbx),%edx
  4030bd:	f7 da                	neg    %edx
  4030bf:	85 d2                	test   %edx,%edx
  4030c1:	75 0e                	jne    4030d1 <submitr+0x717>
  4030c3:	b8 00 00 00 00       	mov    $0x0,%eax
  4030c8:	eb 0c                	jmp    4030d6 <submitr+0x71c>
  4030ca:	b8 00 00 00 00       	mov    $0x0,%eax
  4030cf:	eb 05                	jmp    4030d6 <submitr+0x71c>
  4030d1:	b8 ff ff ff ff       	mov    $0xffffffff,%eax
  4030d6:	48 8b 9c 24 58 a0 00 	mov    0xa058(%rsp),%rbx
  4030dd:	00 
  4030de:	64 48 33 1c 25 28 00 	xor    %fs:0x28,%rbx
  4030e5:	00 00 
  4030e7:	74 05                	je     4030ee <submitr+0x734>
  4030e9:	e8 32 dd ff ff       	callq  400e20 <__stack_chk_fail@plt>
  4030ee:	48 81 c4 68 a0 00 00 	add    $0xa068,%rsp
  4030f5:	5b                   	pop    %rbx
  4030f6:	5d                   	pop    %rbp
  4030f7:	41 5c                	pop    %r12
  4030f9:	41 5d                	pop    %r13
  4030fb:	41 5e                	pop    %r14
  4030fd:	41 5f                	pop    %r15
  4030ff:	c3                   	retq   

0000000000403100 <init_timeout>:
  403100:	85 ff                	test   %edi,%edi
  403102:	74 23                	je     403127 <init_timeout+0x27>
  403104:	53                   	push   %rbx
  403105:	89 fb                	mov    %edi,%ebx
  403107:	85 ff                	test   %edi,%edi
  403109:	79 05                	jns    403110 <init_timeout+0x10>
  40310b:	bb 00 00 00 00       	mov    $0x0,%ebx
  403110:	be 18 23 40 00       	mov    $0x402318,%esi
  403115:	bf 0e 00 00 00       	mov    $0xe,%edi
  40311a:	e8 81 dd ff ff       	callq  400ea0 <signal@plt>
  40311f:	89 df                	mov    %ebx,%edi
  403121:	e8 2a dd ff ff       	callq  400e50 <alarm@plt>
  403126:	5b                   	pop    %rbx
  403127:	f3 c3                	repz retq 

0000000000403129 <init_driver>:
  403129:	55                   	push   %rbp
  40312a:	53                   	push   %rbx
  40312b:	48 83 ec 28          	sub    $0x28,%rsp
  40312f:	48 89 fd             	mov    %rdi,%rbp
  403132:	64 48 8b 04 25 28 00 	mov    %fs:0x28,%rax
  403139:	00 00 
  40313b:	48 89 44 24 18       	mov    %rax,0x18(%rsp)
  403140:	31 c0                	xor    %eax,%eax
  403142:	be 01 00 00 00       	mov    $0x1,%esi
  403147:	bf 0d 00 00 00       	mov    $0xd,%edi
  40314c:	e8 4f dd ff ff       	callq  400ea0 <signal@plt>
  403151:	be 01 00 00 00       	mov    $0x1,%esi
  403156:	bf 1d 00 00 00       	mov    $0x1d,%edi
  40315b:	e8 40 dd ff ff       	callq  400ea0 <signal@plt>
  403160:	be 01 00 00 00       	mov    $0x1,%esi
  403165:	bf 1d 00 00 00       	mov    $0x1d,%edi
  40316a:	e8 31 dd ff ff       	callq  400ea0 <signal@plt>
  40316f:	ba 00 00 00 00       	mov    $0x0,%edx
  403174:	be 01 00 00 00       	mov    $0x1,%esi
  403179:	bf 02 00 00 00       	mov    $0x2,%edi
  40317e:	e8 7d de ff ff       	callq  401000 <socket@plt>
  403183:	85 c0                	test   %eax,%eax
  403185:	79 4f                	jns    4031d6 <init_driver+0xad>
  403187:	48 b8 45 72 72 6f 72 	movabs $0x43203a726f727245,%rax
  40318e:	3a 20 43 
  403191:	48 89 45 00          	mov    %rax,0x0(%rbp)
  403195:	48 b8 6c 69 65 6e 74 	movabs $0x6e7520746e65696c,%rax
  40319c:	20 75 6e 
  40319f:	48 89 45 08          	mov    %rax,0x8(%rbp)
  4031a3:	48 b8 61 62 6c 65 20 	movabs $0x206f7420656c6261,%rax
  4031aa:	74 6f 20 
  4031ad:	48 89 45 10          	mov    %rax,0x10(%rbp)
  4031b1:	48 b8 63 72 65 61 74 	movabs $0x7320657461657263,%rax
  4031b8:	65 20 73 
  4031bb:	48 89 45 18          	mov    %rax,0x18(%rbp)
  4031bf:	c7 45 20 6f 63 6b 65 	movl   $0x656b636f,0x20(%rbp)
  4031c6:	66 c7 45 24 74 00    	movw   $0x74,0x24(%rbp)
  4031cc:	b8 ff ff ff ff       	mov    $0xffffffff,%eax
  4031d1:	e9 2a 01 00 00       	jmpq   403300 <init_driver+0x1d7>
  4031d6:	89 c3                	mov    %eax,%ebx
  4031d8:	bf d6 3b 40 00       	mov    $0x403bd6,%edi
  4031dd:	e8 ce dc ff ff       	callq  400eb0 <gethostbyname@plt>
  4031e2:	48 85 c0             	test   %rax,%rax
  4031e5:	75 68                	jne    40324f <init_driver+0x126>
  4031e7:	48 b8 45 72 72 6f 72 	movabs $0x44203a726f727245,%rax
  4031ee:	3a 20 44 
  4031f1:	48 89 45 00          	mov    %rax,0x0(%rbp)
  4031f5:	48 b8 4e 53 20 69 73 	movabs $0x6e7520736920534e,%rax
  4031fc:	20 75 6e 
  4031ff:	48 89 45 08          	mov    %rax,0x8(%rbp)
  403203:	48 b8 61 62 6c 65 20 	movabs $0x206f7420656c6261,%rax
  40320a:	74 6f 20 
  40320d:	48 89 45 10          	mov    %rax,0x10(%rbp)
  403211:	48 b8 72 65 73 6f 6c 	movabs $0x2065766c6f736572,%rax
  403218:	76 65 20 
  40321b:	48 89 45 18          	mov    %rax,0x18(%rbp)
  40321f:	48 b8 73 65 72 76 65 	movabs $0x6120726576726573,%rax
  403226:	72 20 61 
  403229:	48 89 45 20          	mov    %rax,0x20(%rbp)
  40322d:	c7 45 28 64 64 72 65 	movl   $0x65726464,0x28(%rbp)
  403234:	66 c7 45 2c 73 73    	movw   $0x7373,0x2c(%rbp)
  40323a:	c6 45 2e 00          	movb   $0x0,0x2e(%rbp)
  40323e:	89 df                	mov    %ebx,%edi
  403240:	e8 1b dc ff ff       	callq  400e60 <close@plt>
  403245:	b8 ff ff ff ff       	mov    $0xffffffff,%eax
  40324a:	e9 b1 00 00 00       	jmpq   403300 <init_driver+0x1d7>
  40324f:	48 c7 04 24 00 00 00 	movq   $0x0,(%rsp)
  403256:	00 
  403257:	48 c7 44 24 08 00 00 	movq   $0x0,0x8(%rsp)
  40325e:	00 00 
  403260:	66 c7 04 24 02 00    	movw   $0x2,(%rsp)
  403266:	48 63 50 14          	movslq 0x14(%rax),%rdx
  40326a:	48 8b 40 18          	mov    0x18(%rax),%rax
  40326e:	48 8b 30             	mov    (%rax),%rsi
  403271:	48 8d 7c 24 04       	lea    0x4(%rsp),%rdi
  403276:	b9 0c 00 00 00       	mov    $0xc,%ecx
  40327b:	e8 40 dc ff ff       	callq  400ec0 <__memmove_chk@plt>
  403280:	66 c7 44 24 02 1f 7c 	movw   $0x7c1f,0x2(%rsp)
  403287:	ba 10 00 00 00       	mov    $0x10,%edx
  40328c:	48 89 e6             	mov    %rsp,%rsi
  40328f:	89 df                	mov    %ebx,%edi
  403291:	e8 2a dd ff ff       	callq  400fc0 <connect@plt>
  403296:	85 c0                	test   %eax,%eax
  403298:	79 50                	jns    4032ea <init_driver+0x1c1>
  40329a:	48 b8 45 72 72 6f 72 	movabs $0x55203a726f727245,%rax
  4032a1:	3a 20 55 
  4032a4:	48 89 45 00          	mov    %rax,0x0(%rbp)
  4032a8:	48 b8 6e 61 62 6c 65 	movabs $0x6f7420656c62616e,%rax
  4032af:	20 74 6f 
  4032b2:	48 89 45 08          	mov    %rax,0x8(%rbp)
  4032b6:	48 b8 20 63 6f 6e 6e 	movabs $0x7463656e6e6f6320,%rax
  4032bd:	65 63 74 
  4032c0:	48 89 45 10          	mov    %rax,0x10(%rbp)
  4032c4:	48 b8 20 74 6f 20 73 	movabs $0x76726573206f7420,%rax
  4032cb:	65 72 76 
  4032ce:	48 89 45 18          	mov    %rax,0x18(%rbp)
  4032d2:	66 c7 45 20 65 72    	movw   $0x7265,0x20(%rbp)
  4032d8:	c6 45 22 00          	movb   $0x0,0x22(%rbp)
  4032dc:	89 df                	mov    %ebx,%edi
  4032de:	e8 7d db ff ff       	callq  400e60 <close@plt>
  4032e3:	b8 ff ff ff ff       	mov    $0xffffffff,%eax
  4032e8:	eb 16                	jmp    403300 <init_driver+0x1d7>
  4032ea:	89 df                	mov    %ebx,%edi
  4032ec:	e8 6f db ff ff       	callq  400e60 <close@plt>
  4032f1:	66 c7 45 00 4f 4b    	movw   $0x4b4f,0x0(%rbp)
  4032f7:	c6 45 02 00          	movb   $0x0,0x2(%rbp)
  4032fb:	b8 00 00 00 00       	mov    $0x0,%eax
  403300:	48 8b 4c 24 18       	mov    0x18(%rsp),%rcx
  403305:	64 48 33 0c 25 28 00 	xor    %fs:0x28,%rcx
  40330c:	00 00 
  40330e:	74 05                	je     403315 <init_driver+0x1ec>
  403310:	e8 0b db ff ff       	callq  400e20 <__stack_chk_fail@plt>
  403315:	48 83 c4 28          	add    $0x28,%rsp
  403319:	5b                   	pop    %rbx
  40331a:	5d                   	pop    %rbp
  40331b:	c3                   	retq   

000000000040331c <driver_post>:
  40331c:	53                   	push   %rbx
  40331d:	4c 89 cb             	mov    %r9,%rbx
  403320:	45 85 c0             	test   %r8d,%r8d
  403323:	74 27                	je     40334c <driver_post+0x30>
  403325:	48 89 ca             	mov    %rcx,%rdx
  403328:	be e1 3b 40 00       	mov    $0x403be1,%esi
  40332d:	bf 01 00 00 00       	mov    $0x1,%edi
  403332:	b8 00 00 00 00       	mov    $0x0,%eax
  403337:	e8 04 dc ff ff       	callq  400f40 <__printf_chk@plt>
  40333c:	66 c7 03 4f 4b       	movw   $0x4b4f,(%rbx)
  403341:	c6 43 02 00          	movb   $0x0,0x2(%rbx)
  403345:	b8 00 00 00 00       	mov    $0x0,%eax
  40334a:	eb 3c                	jmp    403388 <driver_post+0x6c>
  40334c:	48 85 ff             	test   %rdi,%rdi
  40334f:	74 27                	je     403378 <driver_post+0x5c>
  403351:	48 83 ec 08          	sub    $0x8,%rsp
  403355:	41 51                	push   %r9
  403357:	49 89 c9             	mov    %rcx,%r9
  40335a:	49 89 d0             	mov    %rdx,%r8
  40335d:	48 89 f9             	mov    %rdi,%rcx
  403360:	48 89 f2             	mov    %rsi,%rdx
  403363:	be 7c 1f 00 00       	mov    $0x1f7c,%esi
  403368:	bf d6 3b 40 00       	mov    $0x403bd6,%edi
  40336d:	e8 48 f6 ff ff       	callq  4029ba <submitr>
  403372:	48 83 c4 10          	add    $0x10,%rsp
  403376:	eb 10                	jmp    403388 <driver_post+0x6c>
  403378:	66 41 c7 01 4f 4b    	movw   $0x4b4f,(%r9)
  40337e:	41 c6 41 02 00       	movb   $0x0,0x2(%r9)
  403383:	b8 00 00 00 00       	mov    $0x0,%eax
  403388:	5b                   	pop    %rbx
  403389:	c3                   	retq   

000000000040338a <check>:
  40338a:	89 f8                	mov    %edi,%eax
  40338c:	c1 e8 1c             	shr    $0x1c,%eax
  40338f:	85 c0                	test   %eax,%eax
  403391:	74 1d                	je     4033b0 <check+0x26>
  403393:	b9 00 00 00 00       	mov    $0x0,%ecx
  403398:	eb 0b                	jmp    4033a5 <check+0x1b>
  40339a:	89 f8                	mov    %edi,%eax
  40339c:	d3 e8                	shr    %cl,%eax
  40339e:	3c 0a                	cmp    $0xa,%al
  4033a0:	74 14                	je     4033b6 <check+0x2c>
  4033a2:	83 c1 08             	add    $0x8,%ecx
  4033a5:	83 f9 1f             	cmp    $0x1f,%ecx
  4033a8:	7e f0                	jle    40339a <check+0x10>
  4033aa:	b8 01 00 00 00       	mov    $0x1,%eax
  4033af:	c3                   	retq   
  4033b0:	b8 00 00 00 00       	mov    $0x0,%eax
  4033b5:	c3                   	retq   
  4033b6:	b8 00 00 00 00       	mov    $0x0,%eax
  4033bb:	c3                   	retq   

00000000004033bc <make_magic>:
  4033bc:	53                   	push   %rbx
  4033bd:	83 c7 01             	add    $0x1,%edi
  4033c0:	e8 0b da ff ff       	callq  400dd0 <srandom@plt>
  4033c5:	e8 36 db ff ff       	callq  400f00 <random@plt>
  4033ca:	89 c3                	mov    %eax,%ebx
  4033cc:	89 c7                	mov    %eax,%edi
  4033ce:	e8 b7 ff ff ff       	callq  40338a <check>
  4033d3:	85 c0                	test   %eax,%eax
  4033d5:	74 ee                	je     4033c5 <make_magic+0x9>
  4033d7:	89 d8                	mov    %ebx,%eax
  4033d9:	5b                   	pop    %rbx
  4033da:	c3                   	retq   
  4033db:	0f 1f 44 00 00       	nopl   0x0(%rax,%rax,1)

00000000004033e0 <__libc_csu_init>:
  4033e0:	41 57                	push   %r15
  4033e2:	41 56                	push   %r14
  4033e4:	41 89 ff             	mov    %edi,%r15d
  4033e7:	41 55                	push   %r13
  4033e9:	41 54                	push   %r12
  4033eb:	4c 8d 25 1e 1a 20 00 	lea    0x201a1e(%rip),%r12        # 604e10 <__frame_dummy_init_array_entry>
  4033f2:	55                   	push   %rbp
  4033f3:	48 8d 2d 1e 1a 20 00 	lea    0x201a1e(%rip),%rbp        # 604e18 <__init_array_end>
  4033fa:	53                   	push   %rbx
  4033fb:	49 89 f6             	mov    %rsi,%r14
  4033fe:	49 89 d5             	mov    %rdx,%r13
  403401:	4c 29 e5             	sub    %r12,%rbp
  403404:	48 83 ec 08          	sub    $0x8,%rsp
  403408:	48 c1 fd 03          	sar    $0x3,%rbp
  40340c:	e8 57 d9 ff ff       	callq  400d68 <_init>
  403411:	48 85 ed             	test   %rbp,%rbp
  403414:	74 20                	je     403436 <__libc_csu_init+0x56>
  403416:	31 db                	xor    %ebx,%ebx
  403418:	0f 1f 84 00 00 00 00 	nopl   0x0(%rax,%rax,1)
  40341f:	00 
  403420:	4c 89 ea             	mov    %r13,%rdx
  403423:	4c 89 f6             	mov    %r14,%rsi
  403426:	44 89 ff             	mov    %r15d,%edi
  403429:	41 ff 14 dc          	callq  *(%r12,%rbx,8)
  40342d:	48 83 c3 01          	add    $0x1,%rbx
  403431:	48 39 eb             	cmp    %rbp,%rbx
  403434:	75 ea                	jne    403420 <__libc_csu_init+0x40>
  403436:	48 83 c4 08          	add    $0x8,%rsp
  40343a:	5b                   	pop    %rbx
  40343b:	5d                   	pop    %rbp
  40343c:	41 5c                	pop    %r12
  40343e:	41 5d                	pop    %r13
  403440:	41 5e                	pop    %r14
  403442:	41 5f                	pop    %r15
  403444:	c3                   	retq   
  403445:	90                   	nop
  403446:	66 2e 0f 1f 84 00 00 	nopw   %cs:0x0(%rax,%rax,1)
  40344d:	00 00 00 

0000000000403450 <__libc_csu_fini>:
  403450:	f3 c3                	repz retq 

Disassembly of section .fini:

0000000000403454 <_fini>:
  403454:	48 83 ec 08          	sub    $0x8,%rsp
  403458:	48 83 c4 08          	add    $0x8,%rsp
  40345c:	c3                   	retq   
