
rtarget:     file format elf64-x86-64


Disassembly of section .init:

0000000000400d30 <_init>:
  400d30:	48 83 ec 08          	sub    $0x8,%rsp
  400d34:	48 8b 05 bd 42 20 00 	mov    0x2042bd(%rip),%rax        # 604ff8 <_DYNAMIC+0x1d0>
  400d3b:	48 85 c0             	test   %rax,%rax
  400d3e:	74 05                	je     400d45 <_init+0x15>
  400d40:	e8 7b 02 00 00       	callq  400fc0 <socket@plt+0x10>
  400d45:	48 83 c4 08          	add    $0x8,%rsp
  400d49:	c3                   	retq   

Disassembly of section .plt:

0000000000400d50 <__strcat_chk@plt-0x10>:
  400d50:	ff 35 b2 42 20 00    	pushq  0x2042b2(%rip)        # 605008 <_GLOBAL_OFFSET_TABLE_+0x8>
  400d56:	ff 25 b4 42 20 00    	jmpq   *0x2042b4(%rip)        # 605010 <_GLOBAL_OFFSET_TABLE_+0x10>
  400d5c:	0f 1f 40 00          	nopl   0x0(%rax)

0000000000400d60 <__strcat_chk@plt>:
  400d60:	ff 25 b2 42 20 00    	jmpq   *0x2042b2(%rip)        # 605018 <_GLOBAL_OFFSET_TABLE_+0x18>
  400d66:	68 00 00 00 00       	pushq  $0x0
  400d6b:	e9 e0 ff ff ff       	jmpq   400d50 <_init+0x20>

0000000000400d70 <strcasecmp@plt>:
  400d70:	ff 25 aa 42 20 00    	jmpq   *0x2042aa(%rip)        # 605020 <_GLOBAL_OFFSET_TABLE_+0x20>
  400d76:	68 01 00 00 00       	pushq  $0x1
  400d7b:	e9 d0 ff ff ff       	jmpq   400d50 <_init+0x20>

0000000000400d80 <__errno_location@plt>:
  400d80:	ff 25 a2 42 20 00    	jmpq   *0x2042a2(%rip)        # 605028 <_GLOBAL_OFFSET_TABLE_+0x28>
  400d86:	68 02 00 00 00       	pushq  $0x2
  400d8b:	e9 c0 ff ff ff       	jmpq   400d50 <_init+0x20>

0000000000400d90 <srandom@plt>:
  400d90:	ff 25 9a 42 20 00    	jmpq   *0x20429a(%rip)        # 605030 <_GLOBAL_OFFSET_TABLE_+0x30>
  400d96:	68 03 00 00 00       	pushq  $0x3
  400d9b:	e9 b0 ff ff ff       	jmpq   400d50 <_init+0x20>

0000000000400da0 <strncmp@plt>:
  400da0:	ff 25 92 42 20 00    	jmpq   *0x204292(%rip)        # 605038 <_GLOBAL_OFFSET_TABLE_+0x38>
  400da6:	68 04 00 00 00       	pushq  $0x4
  400dab:	e9 a0 ff ff ff       	jmpq   400d50 <_init+0x20>

0000000000400db0 <strcpy@plt>:
  400db0:	ff 25 8a 42 20 00    	jmpq   *0x20428a(%rip)        # 605040 <_GLOBAL_OFFSET_TABLE_+0x40>
  400db6:	68 05 00 00 00       	pushq  $0x5
  400dbb:	e9 90 ff ff ff       	jmpq   400d50 <_init+0x20>

0000000000400dc0 <puts@plt>:
  400dc0:	ff 25 82 42 20 00    	jmpq   *0x204282(%rip)        # 605048 <_GLOBAL_OFFSET_TABLE_+0x48>
  400dc6:	68 06 00 00 00       	pushq  $0x6
  400dcb:	e9 80 ff ff ff       	jmpq   400d50 <_init+0x20>

0000000000400dd0 <write@plt>:
  400dd0:	ff 25 7a 42 20 00    	jmpq   *0x20427a(%rip)        # 605050 <_GLOBAL_OFFSET_TABLE_+0x50>
  400dd6:	68 07 00 00 00       	pushq  $0x7
  400ddb:	e9 70 ff ff ff       	jmpq   400d50 <_init+0x20>

0000000000400de0 <__stack_chk_fail@plt>:
  400de0:	ff 25 72 42 20 00    	jmpq   *0x204272(%rip)        # 605058 <_GLOBAL_OFFSET_TABLE_+0x58>
  400de6:	68 08 00 00 00       	pushq  $0x8
  400deb:	e9 60 ff ff ff       	jmpq   400d50 <_init+0x20>

0000000000400df0 <mmap@plt>:
  400df0:	ff 25 6a 42 20 00    	jmpq   *0x20426a(%rip)        # 605060 <_GLOBAL_OFFSET_TABLE_+0x60>
  400df6:	68 09 00 00 00       	pushq  $0x9
  400dfb:	e9 50 ff ff ff       	jmpq   400d50 <_init+0x20>

0000000000400e00 <memset@plt>:
  400e00:	ff 25 62 42 20 00    	jmpq   *0x204262(%rip)        # 605068 <_GLOBAL_OFFSET_TABLE_+0x68>
  400e06:	68 0a 00 00 00       	pushq  $0xa
  400e0b:	e9 40 ff ff ff       	jmpq   400d50 <_init+0x20>

0000000000400e10 <alarm@plt>:
  400e10:	ff 25 5a 42 20 00    	jmpq   *0x20425a(%rip)        # 605070 <_GLOBAL_OFFSET_TABLE_+0x70>
  400e16:	68 0b 00 00 00       	pushq  $0xb
  400e1b:	e9 30 ff ff ff       	jmpq   400d50 <_init+0x20>

0000000000400e20 <close@plt>:
  400e20:	ff 25 52 42 20 00    	jmpq   *0x204252(%rip)        # 605078 <_GLOBAL_OFFSET_TABLE_+0x78>
  400e26:	68 0c 00 00 00       	pushq  $0xc
  400e2b:	e9 20 ff ff ff       	jmpq   400d50 <_init+0x20>

0000000000400e30 <read@plt>:
  400e30:	ff 25 4a 42 20 00    	jmpq   *0x20424a(%rip)        # 605080 <_GLOBAL_OFFSET_TABLE_+0x80>
  400e36:	68 0d 00 00 00       	pushq  $0xd
  400e3b:	e9 10 ff ff ff       	jmpq   400d50 <_init+0x20>

0000000000400e40 <__libc_start_main@plt>:
  400e40:	ff 25 42 42 20 00    	jmpq   *0x204242(%rip)        # 605088 <_GLOBAL_OFFSET_TABLE_+0x88>
  400e46:	68 0e 00 00 00       	pushq  $0xe
  400e4b:	e9 00 ff ff ff       	jmpq   400d50 <_init+0x20>

0000000000400e50 <signal@plt>:
  400e50:	ff 25 3a 42 20 00    	jmpq   *0x20423a(%rip)        # 605090 <_GLOBAL_OFFSET_TABLE_+0x90>
  400e56:	68 0f 00 00 00       	pushq  $0xf
  400e5b:	e9 f0 fe ff ff       	jmpq   400d50 <_init+0x20>

0000000000400e60 <gethostbyname@plt>:
  400e60:	ff 25 32 42 20 00    	jmpq   *0x204232(%rip)        # 605098 <_GLOBAL_OFFSET_TABLE_+0x98>
  400e66:	68 10 00 00 00       	pushq  $0x10
  400e6b:	e9 e0 fe ff ff       	jmpq   400d50 <_init+0x20>

0000000000400e70 <__memmove_chk@plt>:
  400e70:	ff 25 2a 42 20 00    	jmpq   *0x20422a(%rip)        # 6050a0 <_GLOBAL_OFFSET_TABLE_+0xa0>
  400e76:	68 11 00 00 00       	pushq  $0x11
  400e7b:	e9 d0 fe ff ff       	jmpq   400d50 <_init+0x20>

0000000000400e80 <strtol@plt>:
  400e80:	ff 25 22 42 20 00    	jmpq   *0x204222(%rip)        # 6050a8 <_GLOBAL_OFFSET_TABLE_+0xa8>
  400e86:	68 12 00 00 00       	pushq  $0x12
  400e8b:	e9 c0 fe ff ff       	jmpq   400d50 <_init+0x20>

0000000000400e90 <memcpy@plt>:
  400e90:	ff 25 1a 42 20 00    	jmpq   *0x20421a(%rip)        # 6050b0 <_GLOBAL_OFFSET_TABLE_+0xb0>
  400e96:	68 13 00 00 00       	pushq  $0x13
  400e9b:	e9 b0 fe ff ff       	jmpq   400d50 <_init+0x20>

0000000000400ea0 <time@plt>:
  400ea0:	ff 25 12 42 20 00    	jmpq   *0x204212(%rip)        # 6050b8 <_GLOBAL_OFFSET_TABLE_+0xb8>
  400ea6:	68 14 00 00 00       	pushq  $0x14
  400eab:	e9 a0 fe ff ff       	jmpq   400d50 <_init+0x20>

0000000000400eb0 <random@plt>:
  400eb0:	ff 25 0a 42 20 00    	jmpq   *0x20420a(%rip)        # 6050c0 <_GLOBAL_OFFSET_TABLE_+0xc0>
  400eb6:	68 15 00 00 00       	pushq  $0x15
  400ebb:	e9 90 fe ff ff       	jmpq   400d50 <_init+0x20>

0000000000400ec0 <_IO_getc@plt>:
  400ec0:	ff 25 02 42 20 00    	jmpq   *0x204202(%rip)        # 6050c8 <_GLOBAL_OFFSET_TABLE_+0xc8>
  400ec6:	68 16 00 00 00       	pushq  $0x16
  400ecb:	e9 80 fe ff ff       	jmpq   400d50 <_init+0x20>

0000000000400ed0 <__isoc99_sscanf@plt>:
  400ed0:	ff 25 fa 41 20 00    	jmpq   *0x2041fa(%rip)        # 6050d0 <_GLOBAL_OFFSET_TABLE_+0xd0>
  400ed6:	68 17 00 00 00       	pushq  $0x17
  400edb:	e9 70 fe ff ff       	jmpq   400d50 <_init+0x20>

0000000000400ee0 <munmap@plt>:
  400ee0:	ff 25 f2 41 20 00    	jmpq   *0x2041f2(%rip)        # 6050d8 <_GLOBAL_OFFSET_TABLE_+0xd8>
  400ee6:	68 18 00 00 00       	pushq  $0x18
  400eeb:	e9 60 fe ff ff       	jmpq   400d50 <_init+0x20>

0000000000400ef0 <__printf_chk@plt>:
  400ef0:	ff 25 ea 41 20 00    	jmpq   *0x2041ea(%rip)        # 6050e0 <_GLOBAL_OFFSET_TABLE_+0xe0>
  400ef6:	68 19 00 00 00       	pushq  $0x19
  400efb:	e9 50 fe ff ff       	jmpq   400d50 <_init+0x20>

0000000000400f00 <fopen@plt>:
  400f00:	ff 25 e2 41 20 00    	jmpq   *0x2041e2(%rip)        # 6050e8 <_GLOBAL_OFFSET_TABLE_+0xe8>
  400f06:	68 1a 00 00 00       	pushq  $0x1a
  400f0b:	e9 40 fe ff ff       	jmpq   400d50 <_init+0x20>

0000000000400f10 <getopt@plt>:
  400f10:	ff 25 da 41 20 00    	jmpq   *0x2041da(%rip)        # 6050f0 <_GLOBAL_OFFSET_TABLE_+0xf0>
  400f16:	68 1b 00 00 00       	pushq  $0x1b
  400f1b:	e9 30 fe ff ff       	jmpq   400d50 <_init+0x20>

0000000000400f20 <strtoul@plt>:
  400f20:	ff 25 d2 41 20 00    	jmpq   *0x2041d2(%rip)        # 6050f8 <_GLOBAL_OFFSET_TABLE_+0xf8>
  400f26:	68 1c 00 00 00       	pushq  $0x1c
  400f2b:	e9 20 fe ff ff       	jmpq   400d50 <_init+0x20>

0000000000400f30 <atoi@plt>:
  400f30:	ff 25 ca 41 20 00    	jmpq   *0x2041ca(%rip)        # 605100 <_GLOBAL_OFFSET_TABLE_+0x100>
  400f36:	68 1d 00 00 00       	pushq  $0x1d
  400f3b:	e9 10 fe ff ff       	jmpq   400d50 <_init+0x20>

0000000000400f40 <gethostname@plt>:
  400f40:	ff 25 c2 41 20 00    	jmpq   *0x2041c2(%rip)        # 605108 <_GLOBAL_OFFSET_TABLE_+0x108>
  400f46:	68 1e 00 00 00       	pushq  $0x1e
  400f4b:	e9 00 fe ff ff       	jmpq   400d50 <_init+0x20>

0000000000400f50 <sprintf@plt>:
  400f50:	ff 25 ba 41 20 00    	jmpq   *0x2041ba(%rip)        # 605110 <_GLOBAL_OFFSET_TABLE_+0x110>
  400f56:	68 1f 00 00 00       	pushq  $0x1f
  400f5b:	e9 f0 fd ff ff       	jmpq   400d50 <_init+0x20>

0000000000400f60 <exit@plt>:
  400f60:	ff 25 b2 41 20 00    	jmpq   *0x2041b2(%rip)        # 605118 <_GLOBAL_OFFSET_TABLE_+0x118>
  400f66:	68 20 00 00 00       	pushq  $0x20
  400f6b:	e9 e0 fd ff ff       	jmpq   400d50 <_init+0x20>

0000000000400f70 <connect@plt>:
  400f70:	ff 25 aa 41 20 00    	jmpq   *0x2041aa(%rip)        # 605120 <_GLOBAL_OFFSET_TABLE_+0x120>
  400f76:	68 21 00 00 00       	pushq  $0x21
  400f7b:	e9 d0 fd ff ff       	jmpq   400d50 <_init+0x20>

0000000000400f80 <__fprintf_chk@plt>:
  400f80:	ff 25 a2 41 20 00    	jmpq   *0x2041a2(%rip)        # 605128 <_GLOBAL_OFFSET_TABLE_+0x128>
  400f86:	68 22 00 00 00       	pushq  $0x22
  400f8b:	e9 c0 fd ff ff       	jmpq   400d50 <_init+0x20>

0000000000400f90 <strstr@plt>:
  400f90:	ff 25 9a 41 20 00    	jmpq   *0x20419a(%rip)        # 605130 <_GLOBAL_OFFSET_TABLE_+0x130>
  400f96:	68 23 00 00 00       	pushq  $0x23
  400f9b:	e9 b0 fd ff ff       	jmpq   400d50 <_init+0x20>

0000000000400fa0 <__sprintf_chk@plt>:
  400fa0:	ff 25 92 41 20 00    	jmpq   *0x204192(%rip)        # 605138 <_GLOBAL_OFFSET_TABLE_+0x138>
  400fa6:	68 24 00 00 00       	pushq  $0x24
  400fab:	e9 a0 fd ff ff       	jmpq   400d50 <_init+0x20>

0000000000400fb0 <socket@plt>:
  400fb0:	ff 25 8a 41 20 00    	jmpq   *0x20418a(%rip)        # 605140 <_GLOBAL_OFFSET_TABLE_+0x140>
  400fb6:	68 25 00 00 00       	pushq  $0x25
  400fbb:	e9 90 fd ff ff       	jmpq   400d50 <_init+0x20>

Disassembly of section .plt.got:

0000000000400fc0 <.plt.got>:
  400fc0:	ff 25 32 40 20 00    	jmpq   *0x204032(%rip)        # 604ff8 <_DYNAMIC+0x1d0>
  400fc6:	66 90                	xchg   %ax,%ax

Disassembly of section .text:

0000000000400fd0 <_start>:
  400fd0:	31 ed                	xor    %ebp,%ebp
  400fd2:	49 89 d1             	mov    %rdx,%r9
  400fd5:	5e                   	pop    %rsi
  400fd6:	48 89 e2             	mov    %rsp,%rdx
  400fd9:	48 83 e4 f0          	and    $0xfffffffffffffff0,%rsp
  400fdd:	50                   	push   %rax
  400fde:	54                   	push   %rsp
  400fdf:	49 c7 c0 90 34 40 00 	mov    $0x403490,%r8
  400fe6:	48 c7 c1 20 34 40 00 	mov    $0x403420,%rcx
  400fed:	48 c7 c7 a9 12 40 00 	mov    $0x4012a9,%rdi
  400ff4:	e8 47 fe ff ff       	callq  400e40 <__libc_start_main@plt>
  400ff9:	f4                   	hlt    
  400ffa:	66 0f 1f 44 00 00    	nopw   0x0(%rax,%rax,1)

0000000000401000 <deregister_tm_clones>:
  401000:	b8 8f 51 60 00       	mov    $0x60518f,%eax
  401005:	55                   	push   %rbp
  401006:	48 2d 88 51 60 00    	sub    $0x605188,%rax
  40100c:	48 83 f8 0e          	cmp    $0xe,%rax
  401010:	48 89 e5             	mov    %rsp,%rbp
  401013:	76 1b                	jbe    401030 <deregister_tm_clones+0x30>
  401015:	b8 00 00 00 00       	mov    $0x0,%eax
  40101a:	48 85 c0             	test   %rax,%rax
  40101d:	74 11                	je     401030 <deregister_tm_clones+0x30>
  40101f:	5d                   	pop    %rbp
  401020:	bf 88 51 60 00       	mov    $0x605188,%edi
  401025:	ff e0                	jmpq   *%rax
  401027:	66 0f 1f 84 00 00 00 	nopw   0x0(%rax,%rax,1)
  40102e:	00 00 
  401030:	5d                   	pop    %rbp
  401031:	c3                   	retq   
  401032:	0f 1f 40 00          	nopl   0x0(%rax)
  401036:	66 2e 0f 1f 84 00 00 	nopw   %cs:0x0(%rax,%rax,1)
  40103d:	00 00 00 

0000000000401040 <register_tm_clones>:
  401040:	be 88 51 60 00       	mov    $0x605188,%esi
  401045:	55                   	push   %rbp
  401046:	48 81 ee 88 51 60 00 	sub    $0x605188,%rsi
  40104d:	48 c1 fe 03          	sar    $0x3,%rsi
  401051:	48 89 e5             	mov    %rsp,%rbp
  401054:	48 89 f0             	mov    %rsi,%rax
  401057:	48 c1 e8 3f          	shr    $0x3f,%rax
  40105b:	48 01 c6             	add    %rax,%rsi
  40105e:	48 d1 fe             	sar    %rsi
  401061:	74 15                	je     401078 <register_tm_clones+0x38>
  401063:	b8 00 00 00 00       	mov    $0x0,%eax
  401068:	48 85 c0             	test   %rax,%rax
  40106b:	74 0b                	je     401078 <register_tm_clones+0x38>
  40106d:	5d                   	pop    %rbp
  40106e:	bf 88 51 60 00       	mov    $0x605188,%edi
  401073:	ff e0                	jmpq   *%rax
  401075:	0f 1f 00             	nopl   (%rax)
  401078:	5d                   	pop    %rbp
  401079:	c3                   	retq   
  40107a:	66 0f 1f 44 00 00    	nopw   0x0(%rax,%rax,1)

0000000000401080 <__do_global_dtors_aux>:
  401080:	80 3d 41 41 20 00 00 	cmpb   $0x0,0x204141(%rip)        # 6051c8 <completed.7594>
  401087:	75 11                	jne    40109a <__do_global_dtors_aux+0x1a>
  401089:	55                   	push   %rbp
  40108a:	48 89 e5             	mov    %rsp,%rbp
  40108d:	e8 6e ff ff ff       	callq  401000 <deregister_tm_clones>
  401092:	5d                   	pop    %rbp
  401093:	c6 05 2e 41 20 00 01 	movb   $0x1,0x20412e(%rip)        # 6051c8 <completed.7594>
  40109a:	f3 c3                	repz retq 
  40109c:	0f 1f 40 00          	nopl   0x0(%rax)

00000000004010a0 <frame_dummy>:
  4010a0:	bf 20 4e 60 00       	mov    $0x604e20,%edi
  4010a5:	48 83 3f 00          	cmpq   $0x0,(%rdi)
  4010a9:	75 05                	jne    4010b0 <frame_dummy+0x10>
  4010ab:	eb 93                	jmp    401040 <register_tm_clones>
  4010ad:	0f 1f 00             	nopl   (%rax)
  4010b0:	b8 00 00 00 00       	mov    $0x0,%eax
  4010b5:	48 85 c0             	test   %rax,%rax
  4010b8:	74 f1                	je     4010ab <frame_dummy+0xb>
  4010ba:	55                   	push   %rbp
  4010bb:	48 89 e5             	mov    %rsp,%rbp
  4010be:	ff d0                	callq  *%rax
  4010c0:	5d                   	pop    %rbp
  4010c1:	e9 7a ff ff ff       	jmpq   401040 <register_tm_clones>

00000000004010c6 <usage>:
  4010c6:	48 83 ec 08          	sub    $0x8,%rsp
  4010ca:	48 89 fa             	mov    %rdi,%rdx
  4010cd:	83 3d 34 41 20 00 00 	cmpl   $0x0,0x204134(%rip)        # 605208 <is_checker>
  4010d4:	74 3e                	je     401114 <usage+0x4e>
  4010d6:	be a8 34 40 00       	mov    $0x4034a8,%esi
  4010db:	bf 01 00 00 00       	mov    $0x1,%edi
  4010e0:	b8 00 00 00 00       	mov    $0x0,%eax
  4010e5:	e8 06 fe ff ff       	callq  400ef0 <__printf_chk@plt>
  4010ea:	bf e0 34 40 00       	mov    $0x4034e0,%edi
  4010ef:	e8 cc fc ff ff       	callq  400dc0 <puts@plt>
  4010f4:	bf 18 36 40 00       	mov    $0x403618,%edi
  4010f9:	e8 c2 fc ff ff       	callq  400dc0 <puts@plt>
  4010fe:	bf 08 35 40 00       	mov    $0x403508,%edi
  401103:	e8 b8 fc ff ff       	callq  400dc0 <puts@plt>
  401108:	bf 32 36 40 00       	mov    $0x403632,%edi
  40110d:	e8 ae fc ff ff       	callq  400dc0 <puts@plt>
  401112:	eb 32                	jmp    401146 <usage+0x80>
  401114:	be 4e 36 40 00       	mov    $0x40364e,%esi
  401119:	bf 01 00 00 00       	mov    $0x1,%edi
  40111e:	b8 00 00 00 00       	mov    $0x0,%eax
  401123:	e8 c8 fd ff ff       	callq  400ef0 <__printf_chk@plt>
  401128:	bf 30 35 40 00       	mov    $0x403530,%edi
  40112d:	e8 8e fc ff ff       	callq  400dc0 <puts@plt>
  401132:	bf 58 35 40 00       	mov    $0x403558,%edi
  401137:	e8 84 fc ff ff       	callq  400dc0 <puts@plt>
  40113c:	bf 6c 36 40 00       	mov    $0x40366c,%edi
  401141:	e8 7a fc ff ff       	callq  400dc0 <puts@plt>
  401146:	bf 00 00 00 00       	mov    $0x0,%edi
  40114b:	e8 10 fe ff ff       	callq  400f60 <exit@plt>

0000000000401150 <initialize_target>:
  401150:	55                   	push   %rbp
  401151:	53                   	push   %rbx
  401152:	48 81 ec 18 21 00 00 	sub    $0x2118,%rsp
  401159:	89 f5                	mov    %esi,%ebp
  40115b:	64 48 8b 04 25 28 00 	mov    %fs:0x28,%rax
  401162:	00 00 
  401164:	48 89 84 24 08 21 00 	mov    %rax,0x2108(%rsp)
  40116b:	00 
  40116c:	31 c0                	xor    %eax,%eax
  40116e:	89 3d 84 40 20 00    	mov    %edi,0x204084(%rip)        # 6051f8 <check_level>
  401174:	8b 3d e6 3f 20 00    	mov    0x203fe6(%rip),%edi        # 605160 <target_id>
  40117a:	e8 76 22 00 00       	callq  4033f5 <make_magic>
  40117f:	89 05 7f 40 20 00    	mov    %eax,0x20407f(%rip)        # 605204 <magic>
  401185:	89 c7                	mov    %eax,%edi
  401187:	e8 69 22 00 00       	callq  4033f5 <make_magic>
  40118c:	89 05 6e 40 20 00    	mov    %eax,0x20406e(%rip)        # 605200 <authkey>
  401192:	8b 05 c8 3f 20 00    	mov    0x203fc8(%rip),%eax        # 605160 <target_id>
  401198:	8d 78 01             	lea    0x1(%rax),%edi
  40119b:	e8 f0 fb ff ff       	callq  400d90 <srandom@plt>
  4011a0:	e8 0b fd ff ff       	callq  400eb0 <random@plt>
  4011a5:	89 c7                	mov    %eax,%edi
  4011a7:	e8 c7 02 00 00       	callq  401473 <scramble>
  4011ac:	89 c3                	mov    %eax,%ebx
  4011ae:	85 ed                	test   %ebp,%ebp
  4011b0:	74 18                	je     4011ca <initialize_target+0x7a>
  4011b2:	bf 00 00 00 00       	mov    $0x0,%edi
  4011b7:	e8 e4 fc ff ff       	callq  400ea0 <time@plt>
  4011bc:	89 c7                	mov    %eax,%edi
  4011be:	e8 cd fb ff ff       	callq  400d90 <srandom@plt>
  4011c3:	e8 e8 fc ff ff       	callq  400eb0 <random@plt>
  4011c8:	eb 05                	jmp    4011cf <initialize_target+0x7f>
  4011ca:	b8 00 00 00 00       	mov    $0x0,%eax
  4011cf:	01 c3                	add    %eax,%ebx
  4011d1:	0f b7 db             	movzwl %bx,%ebx
  4011d4:	8d 04 dd 00 01 00 00 	lea    0x100(,%rbx,8),%eax
  4011db:	89 c0                	mov    %eax,%eax
  4011dd:	48 89 05 94 3f 20 00 	mov    %rax,0x203f94(%rip)        # 605178 <buf_offset>
  4011e4:	c6 05 55 4c 20 00 72 	movb   $0x72,0x204c55(%rip)        # 605e40 <target_prefix>
  4011eb:	83 3d 8e 3f 20 00 00 	cmpl   $0x0,0x203f8e(%rip)        # 605180 <notify>
  4011f2:	0f 84 8f 00 00 00    	je     401287 <initialize_target+0x137>
  4011f8:	83 3d 09 40 20 00 00 	cmpl   $0x0,0x204009(%rip)        # 605208 <is_checker>
  4011ff:	0f 85 82 00 00 00    	jne    401287 <initialize_target+0x137>
  401205:	be 00 01 00 00       	mov    $0x100,%esi
  40120a:	48 89 e7             	mov    %rsp,%rdi
  40120d:	e8 2e fd ff ff       	callq  400f40 <gethostname@plt>
  401212:	85 c0                	test   %eax,%eax
  401214:	74 25                	je     40123b <initialize_target+0xeb>
  401216:	bf 88 35 40 00       	mov    $0x403588,%edi
  40121b:	e8 a0 fb ff ff       	callq  400dc0 <puts@plt>
  401220:	bf 08 00 00 00       	mov    $0x8,%edi
  401225:	e8 36 fd ff ff       	callq  400f60 <exit@plt>
  40122a:	48 89 e6             	mov    %rsp,%rsi
  40122d:	e8 3e fb ff ff       	callq  400d70 <strcasecmp@plt>
  401232:	85 c0                	test   %eax,%eax
  401234:	74 1a                	je     401250 <initialize_target+0x100>
  401236:	83 c3 01             	add    $0x1,%ebx
  401239:	eb 05                	jmp    401240 <initialize_target+0xf0>
  40123b:	bb 00 00 00 00       	mov    $0x0,%ebx
  401240:	48 63 c3             	movslq %ebx,%rax
  401243:	48 8b 3c c5 60 5e 60 	mov    0x605e60(,%rax,8),%rdi
  40124a:	00 
  40124b:	48 85 ff             	test   %rdi,%rdi
  40124e:	75 da                	jne    40122a <initialize_target+0xda>
  401250:	48 8d bc 24 00 01 00 	lea    0x100(%rsp),%rdi
  401257:	00 
  401258:	e8 05 1f 00 00       	callq  403162 <init_driver>
  40125d:	85 c0                	test   %eax,%eax
  40125f:	79 26                	jns    401287 <initialize_target+0x137>
  401261:	48 8d 94 24 00 01 00 	lea    0x100(%rsp),%rdx
  401268:	00 
  401269:	be c0 35 40 00       	mov    $0x4035c0,%esi
  40126e:	bf 01 00 00 00       	mov    $0x1,%edi
  401273:	b8 00 00 00 00       	mov    $0x0,%eax
  401278:	e8 73 fc ff ff       	callq  400ef0 <__printf_chk@plt>
  40127d:	bf 08 00 00 00       	mov    $0x8,%edi
  401282:	e8 d9 fc ff ff       	callq  400f60 <exit@plt>
  401287:	48 8b 84 24 08 21 00 	mov    0x2108(%rsp),%rax
  40128e:	00 
  40128f:	64 48 33 04 25 28 00 	xor    %fs:0x28,%rax
  401296:	00 00 
  401298:	74 05                	je     40129f <initialize_target+0x14f>
  40129a:	e8 41 fb ff ff       	callq  400de0 <__stack_chk_fail@plt>
  40129f:	48 81 c4 18 21 00 00 	add    $0x2118,%rsp
  4012a6:	5b                   	pop    %rbx
  4012a7:	5d                   	pop    %rbp
  4012a8:	c3                   	retq   

00000000004012a9 <main>:
  4012a9:	41 56                	push   %r14
  4012ab:	41 55                	push   %r13
  4012ad:	41 54                	push   %r12
  4012af:	55                   	push   %rbp
  4012b0:	53                   	push   %rbx
  4012b1:	41 89 fc             	mov    %edi,%r12d
  4012b4:	48 89 f3             	mov    %rsi,%rbx
  4012b7:	b8 00 00 00 00       	mov    $0x0,%eax
  4012bc:	e8 ec 06 00 00       	callq  4019ad <calcLastFive>
  4012c1:	be 00 21 40 00       	mov    $0x402100,%esi
  4012c6:	bf 0b 00 00 00       	mov    $0xb,%edi
  4012cb:	e8 80 fb ff ff       	callq  400e50 <signal@plt>
  4012d0:	be b2 20 40 00       	mov    $0x4020b2,%esi
  4012d5:	bf 07 00 00 00       	mov    $0x7,%edi
  4012da:	e8 71 fb ff ff       	callq  400e50 <signal@plt>
  4012df:	be 3f 21 40 00       	mov    $0x40213f,%esi
  4012e4:	bf 04 00 00 00       	mov    $0x4,%edi
  4012e9:	e8 62 fb ff ff       	callq  400e50 <signal@plt>
  4012ee:	83 3d 13 3f 20 00 00 	cmpl   $0x0,0x203f13(%rip)        # 605208 <is_checker>
  4012f5:	74 20                	je     401317 <main+0x6e>
  4012f7:	be 8d 21 40 00       	mov    $0x40218d,%esi
  4012fc:	bf 0e 00 00 00       	mov    $0xe,%edi
  401301:	e8 4a fb ff ff       	callq  400e50 <signal@plt>
  401306:	bf 05 00 00 00       	mov    $0x5,%edi
  40130b:	e8 00 fb ff ff       	callq  400e10 <alarm@plt>
  401310:	bd 8a 36 40 00       	mov    $0x40368a,%ebp
  401315:	eb 05                	jmp    40131c <main+0x73>
  401317:	bd 85 36 40 00       	mov    $0x403685,%ebp
  40131c:	48 8b 05 7d 3e 20 00 	mov    0x203e7d(%rip),%rax        # 6051a0 <stdin@@GLIBC_2.2.5>
  401323:	48 89 05 c6 3e 20 00 	mov    %rax,0x203ec6(%rip)        # 6051f0 <infile>
  40132a:	41 bd 00 00 00 00    	mov    $0x0,%r13d
  401330:	41 be 00 00 00 00    	mov    $0x0,%r14d
  401336:	e9 c6 00 00 00       	jmpq   401401 <main+0x158>
  40133b:	83 e8 61             	sub    $0x61,%eax
  40133e:	3c 10                	cmp    $0x10,%al
  401340:	0f 87 9c 00 00 00    	ja     4013e2 <main+0x139>
  401346:	0f b6 c0             	movzbl %al,%eax
  401349:	ff 24 c5 c8 36 40 00 	jmpq   *0x4036c8(,%rax,8)
  401350:	48 8b 3b             	mov    (%rbx),%rdi
  401353:	e8 6e fd ff ff       	callq  4010c6 <usage>
  401358:	be f9 38 40 00       	mov    $0x4038f9,%esi
  40135d:	48 8b 3d 44 3e 20 00 	mov    0x203e44(%rip),%rdi        # 6051a8 <optarg@@GLIBC_2.2.5>
  401364:	e8 97 fb ff ff       	callq  400f00 <fopen@plt>
  401369:	48 89 05 80 3e 20 00 	mov    %rax,0x203e80(%rip)        # 6051f0 <infile>
  401370:	48 85 c0             	test   %rax,%rax
  401373:	0f 85 88 00 00 00    	jne    401401 <main+0x158>
  401379:	48 8b 0d 28 3e 20 00 	mov    0x203e28(%rip),%rcx        # 6051a8 <optarg@@GLIBC_2.2.5>
  401380:	ba 92 36 40 00       	mov    $0x403692,%edx
  401385:	be 01 00 00 00       	mov    $0x1,%esi
  40138a:	48 8b 3d 2f 3e 20 00 	mov    0x203e2f(%rip),%rdi        # 6051c0 <stderr@@GLIBC_2.2.5>
  401391:	e8 ea fb ff ff       	callq  400f80 <__fprintf_chk@plt>
  401396:	b8 01 00 00 00       	mov    $0x1,%eax
  40139b:	e9 ca 00 00 00       	jmpq   40146a <main+0x1c1>
  4013a0:	ba 10 00 00 00       	mov    $0x10,%edx
  4013a5:	be 00 00 00 00       	mov    $0x0,%esi
  4013aa:	48 8b 3d f7 3d 20 00 	mov    0x203df7(%rip),%rdi        # 6051a8 <optarg@@GLIBC_2.2.5>
  4013b1:	e8 6a fb ff ff       	callq  400f20 <strtoul@plt>
  4013b6:	41 89 c6             	mov    %eax,%r14d
  4013b9:	eb 46                	jmp    401401 <main+0x158>
  4013bb:	ba 0a 00 00 00       	mov    $0xa,%edx
  4013c0:	be 00 00 00 00       	mov    $0x0,%esi
  4013c5:	48 8b 3d dc 3d 20 00 	mov    0x203ddc(%rip),%rdi        # 6051a8 <optarg@@GLIBC_2.2.5>
  4013cc:	e8 af fa ff ff       	callq  400e80 <strtol@plt>
  4013d1:	41 89 c5             	mov    %eax,%r13d
  4013d4:	eb 2b                	jmp    401401 <main+0x158>
  4013d6:	c7 05 a0 3d 20 00 00 	movl   $0x0,0x203da0(%rip)        # 605180 <notify>
  4013dd:	00 00 00 
  4013e0:	eb 1f                	jmp    401401 <main+0x158>
  4013e2:	0f be d2             	movsbl %dl,%edx
  4013e5:	be af 36 40 00       	mov    $0x4036af,%esi
  4013ea:	bf 01 00 00 00       	mov    $0x1,%edi
  4013ef:	b8 00 00 00 00       	mov    $0x0,%eax
  4013f4:	e8 f7 fa ff ff       	callq  400ef0 <__printf_chk@plt>
  4013f9:	48 8b 3b             	mov    (%rbx),%rdi
  4013fc:	e8 c5 fc ff ff       	callq  4010c6 <usage>
  401401:	48 89 ea             	mov    %rbp,%rdx
  401404:	48 89 de             	mov    %rbx,%rsi
  401407:	44 89 e7             	mov    %r12d,%edi
  40140a:	e8 01 fb ff ff       	callq  400f10 <getopt@plt>
  40140f:	89 c2                	mov    %eax,%edx
  401411:	3c ff                	cmp    $0xff,%al
  401413:	0f 85 22 ff ff ff    	jne    40133b <main+0x92>
  401419:	be 01 00 00 00       	mov    $0x1,%esi
  40141e:	44 89 ef             	mov    %r13d,%edi
  401421:	e8 2a fd ff ff       	callq  401150 <initialize_target>
  401426:	83 3d db 3d 20 00 00 	cmpl   $0x0,0x203ddb(%rip)        # 605208 <is_checker>
  40142d:	74 2a                	je     401459 <main+0x1b0>
  40142f:	44 3b 35 ca 3d 20 00 	cmp    0x203dca(%rip),%r14d        # 605200 <authkey>
  401436:	74 21                	je     401459 <main+0x1b0>
  401438:	44 89 f2             	mov    %r14d,%edx
  40143b:	be e8 35 40 00       	mov    $0x4035e8,%esi
  401440:	bf 01 00 00 00       	mov    $0x1,%edi
  401445:	b8 00 00 00 00       	mov    $0x0,%eax
  40144a:	e8 a1 fa ff ff       	callq  400ef0 <__printf_chk@plt>
  40144f:	b8 00 00 00 00       	mov    $0x0,%eax
  401454:	e8 22 09 00 00       	callq  401d7b <check_fail>
  401459:	48 8b 3d 18 3d 20 00 	mov    0x203d18(%rip),%rdi        # 605178 <buf_offset>
  401460:	e8 7b 0d 00 00       	callq  4021e0 <launch>
  401465:	b8 00 00 00 00       	mov    $0x0,%eax
  40146a:	5b                   	pop    %rbx
  40146b:	5d                   	pop    %rbp
  40146c:	41 5c                	pop    %r12
  40146e:	41 5d                	pop    %r13
  401470:	41 5e                	pop    %r14
  401472:	c3                   	retq   

0000000000401473 <scramble>:
  401473:	48 83 ec 38          	sub    $0x38,%rsp
  401477:	64 48 8b 04 25 28 00 	mov    %fs:0x28,%rax
  40147e:	00 00 
  401480:	48 89 44 24 28       	mov    %rax,0x28(%rsp)
  401485:	31 c0                	xor    %eax,%eax
  401487:	eb 10                	jmp    401499 <scramble+0x26>
  401489:	69 d0 19 72 00 00    	imul   $0x7219,%eax,%edx
  40148f:	01 fa                	add    %edi,%edx
  401491:	89 c1                	mov    %eax,%ecx
  401493:	89 14 8c             	mov    %edx,(%rsp,%rcx,4)
  401496:	83 c0 01             	add    $0x1,%eax
  401499:	83 f8 09             	cmp    $0x9,%eax
  40149c:	76 eb                	jbe    401489 <scramble+0x16>
  40149e:	8b 44 24 0c          	mov    0xc(%rsp),%eax
  4014a2:	69 c0 be a7 00 00    	imul   $0xa7be,%eax,%eax
  4014a8:	89 44 24 0c          	mov    %eax,0xc(%rsp)
  4014ac:	8b 44 24 0c          	mov    0xc(%rsp),%eax
  4014b0:	69 c0 1e 9f 00 00    	imul   $0x9f1e,%eax,%eax
  4014b6:	89 44 24 0c          	mov    %eax,0xc(%rsp)
  4014ba:	8b 44 24 08          	mov    0x8(%rsp),%eax
  4014be:	69 c0 47 fc 00 00    	imul   $0xfc47,%eax,%eax
  4014c4:	89 44 24 08          	mov    %eax,0x8(%rsp)
  4014c8:	8b 44 24 1c          	mov    0x1c(%rsp),%eax
  4014cc:	69 c0 f3 e7 00 00    	imul   $0xe7f3,%eax,%eax
  4014d2:	89 44 24 1c          	mov    %eax,0x1c(%rsp)
  4014d6:	8b 44 24 24          	mov    0x24(%rsp),%eax
  4014da:	69 c0 a3 79 00 00    	imul   $0x79a3,%eax,%eax
  4014e0:	89 44 24 24          	mov    %eax,0x24(%rsp)
  4014e4:	8b 44 24 24          	mov    0x24(%rsp),%eax
  4014e8:	69 c0 1d d8 00 00    	imul   $0xd81d,%eax,%eax
  4014ee:	89 44 24 24          	mov    %eax,0x24(%rsp)
  4014f2:	8b 44 24 04          	mov    0x4(%rsp),%eax
  4014f6:	69 c0 23 95 00 00    	imul   $0x9523,%eax,%eax
  4014fc:	89 44 24 04          	mov    %eax,0x4(%rsp)
  401500:	8b 04 24             	mov    (%rsp),%eax
  401503:	69 c0 9b 0d 00 00    	imul   $0xd9b,%eax,%eax
  401509:	89 04 24             	mov    %eax,(%rsp)
  40150c:	8b 44 24 18          	mov    0x18(%rsp),%eax
  401510:	69 c0 06 3f 00 00    	imul   $0x3f06,%eax,%eax
  401516:	89 44 24 18          	mov    %eax,0x18(%rsp)
  40151a:	8b 44 24 20          	mov    0x20(%rsp),%eax
  40151e:	69 c0 c0 c4 00 00    	imul   $0xc4c0,%eax,%eax
  401524:	89 44 24 20          	mov    %eax,0x20(%rsp)
  401528:	8b 44 24 04          	mov    0x4(%rsp),%eax
  40152c:	69 c0 9f 30 00 00    	imul   $0x309f,%eax,%eax
  401532:	89 44 24 04          	mov    %eax,0x4(%rsp)
  401536:	8b 44 24 24          	mov    0x24(%rsp),%eax
  40153a:	69 c0 e8 b4 00 00    	imul   $0xb4e8,%eax,%eax
  401540:	89 44 24 24          	mov    %eax,0x24(%rsp)
  401544:	8b 44 24 14          	mov    0x14(%rsp),%eax
  401548:	69 c0 71 57 00 00    	imul   $0x5771,%eax,%eax
  40154e:	89 44 24 14          	mov    %eax,0x14(%rsp)
  401552:	8b 44 24 10          	mov    0x10(%rsp),%eax
  401556:	69 c0 d4 d2 00 00    	imul   $0xd2d4,%eax,%eax
  40155c:	89 44 24 10          	mov    %eax,0x10(%rsp)
  401560:	8b 44 24 14          	mov    0x14(%rsp),%eax
  401564:	69 c0 16 e1 00 00    	imul   $0xe116,%eax,%eax
  40156a:	89 44 24 14          	mov    %eax,0x14(%rsp)
  40156e:	8b 44 24 10          	mov    0x10(%rsp),%eax
  401572:	69 c0 65 08 00 00    	imul   $0x865,%eax,%eax
  401578:	89 44 24 10          	mov    %eax,0x10(%rsp)
  40157c:	8b 44 24 04          	mov    0x4(%rsp),%eax
  401580:	69 c0 a2 d9 00 00    	imul   $0xd9a2,%eax,%eax
  401586:	89 44 24 04          	mov    %eax,0x4(%rsp)
  40158a:	8b 44 24 14          	mov    0x14(%rsp),%eax
  40158e:	69 c0 91 e0 00 00    	imul   $0xe091,%eax,%eax
  401594:	89 44 24 14          	mov    %eax,0x14(%rsp)
  401598:	8b 44 24 20          	mov    0x20(%rsp),%eax
  40159c:	69 c0 f5 2f 00 00    	imul   $0x2ff5,%eax,%eax
  4015a2:	89 44 24 20          	mov    %eax,0x20(%rsp)
  4015a6:	8b 44 24 20          	mov    0x20(%rsp),%eax
  4015aa:	69 c0 a6 a2 00 00    	imul   $0xa2a6,%eax,%eax
  4015b0:	89 44 24 20          	mov    %eax,0x20(%rsp)
  4015b4:	8b 44 24 24          	mov    0x24(%rsp),%eax
  4015b8:	69 c0 fc 0d 00 00    	imul   $0xdfc,%eax,%eax
  4015be:	89 44 24 24          	mov    %eax,0x24(%rsp)
  4015c2:	8b 44 24 04          	mov    0x4(%rsp),%eax
  4015c6:	69 c0 1b 8b 00 00    	imul   $0x8b1b,%eax,%eax
  4015cc:	89 44 24 04          	mov    %eax,0x4(%rsp)
  4015d0:	8b 44 24 04          	mov    0x4(%rsp),%eax
  4015d4:	69 c0 a4 92 00 00    	imul   $0x92a4,%eax,%eax
  4015da:	89 44 24 04          	mov    %eax,0x4(%rsp)
  4015de:	8b 44 24 24          	mov    0x24(%rsp),%eax
  4015e2:	69 c0 b9 56 00 00    	imul   $0x56b9,%eax,%eax
  4015e8:	89 44 24 24          	mov    %eax,0x24(%rsp)
  4015ec:	8b 44 24 1c          	mov    0x1c(%rsp),%eax
  4015f0:	69 c0 05 3d 00 00    	imul   $0x3d05,%eax,%eax
  4015f6:	89 44 24 1c          	mov    %eax,0x1c(%rsp)
  4015fa:	8b 44 24 10          	mov    0x10(%rsp),%eax
  4015fe:	69 c0 bf be 00 00    	imul   $0xbebf,%eax,%eax
  401604:	89 44 24 10          	mov    %eax,0x10(%rsp)
  401608:	8b 44 24 1c          	mov    0x1c(%rsp),%eax
  40160c:	69 c0 9a 47 00 00    	imul   $0x479a,%eax,%eax
  401612:	89 44 24 1c          	mov    %eax,0x1c(%rsp)
  401616:	8b 44 24 20          	mov    0x20(%rsp),%eax
  40161a:	69 c0 fa 2a 00 00    	imul   $0x2afa,%eax,%eax
  401620:	89 44 24 20          	mov    %eax,0x20(%rsp)
  401624:	8b 44 24 18          	mov    0x18(%rsp),%eax
  401628:	69 c0 51 58 00 00    	imul   $0x5851,%eax,%eax
  40162e:	89 44 24 18          	mov    %eax,0x18(%rsp)
  401632:	8b 44 24 24          	mov    0x24(%rsp),%eax
  401636:	69 c0 58 35 00 00    	imul   $0x3558,%eax,%eax
  40163c:	89 44 24 24          	mov    %eax,0x24(%rsp)
  401640:	8b 44 24 24          	mov    0x24(%rsp),%eax
  401644:	69 c0 5f c0 00 00    	imul   $0xc05f,%eax,%eax
  40164a:	89 44 24 24          	mov    %eax,0x24(%rsp)
  40164e:	8b 44 24 10          	mov    0x10(%rsp),%eax
  401652:	69 c0 3b c2 00 00    	imul   $0xc23b,%eax,%eax
  401658:	89 44 24 10          	mov    %eax,0x10(%rsp)
  40165c:	8b 44 24 1c          	mov    0x1c(%rsp),%eax
  401660:	69 c0 40 e5 00 00    	imul   $0xe540,%eax,%eax
  401666:	89 44 24 1c          	mov    %eax,0x1c(%rsp)
  40166a:	8b 44 24 20          	mov    0x20(%rsp),%eax
  40166e:	69 c0 eb 6f 00 00    	imul   $0x6feb,%eax,%eax
  401674:	89 44 24 20          	mov    %eax,0x20(%rsp)
  401678:	8b 44 24 10          	mov    0x10(%rsp),%eax
  40167c:	69 c0 51 6b 00 00    	imul   $0x6b51,%eax,%eax
  401682:	89 44 24 10          	mov    %eax,0x10(%rsp)
  401686:	8b 44 24 1c          	mov    0x1c(%rsp),%eax
  40168a:	69 c0 ce be 00 00    	imul   $0xbece,%eax,%eax
  401690:	89 44 24 1c          	mov    %eax,0x1c(%rsp)
  401694:	8b 44 24 20          	mov    0x20(%rsp),%eax
  401698:	69 c0 55 8d 00 00    	imul   $0x8d55,%eax,%eax
  40169e:	89 44 24 20          	mov    %eax,0x20(%rsp)
  4016a2:	8b 44 24 18          	mov    0x18(%rsp),%eax
  4016a6:	69 c0 6c 1c 00 00    	imul   $0x1c6c,%eax,%eax
  4016ac:	89 44 24 18          	mov    %eax,0x18(%rsp)
  4016b0:	8b 44 24 10          	mov    0x10(%rsp),%eax
  4016b4:	69 c0 a1 e2 00 00    	imul   $0xe2a1,%eax,%eax
  4016ba:	89 44 24 10          	mov    %eax,0x10(%rsp)
  4016be:	8b 44 24 20          	mov    0x20(%rsp),%eax
  4016c2:	69 c0 a5 f1 00 00    	imul   $0xf1a5,%eax,%eax
  4016c8:	89 44 24 20          	mov    %eax,0x20(%rsp)
  4016cc:	8b 44 24 18          	mov    0x18(%rsp),%eax
  4016d0:	69 c0 9f 8e 00 00    	imul   $0x8e9f,%eax,%eax
  4016d6:	89 44 24 18          	mov    %eax,0x18(%rsp)
  4016da:	8b 44 24 10          	mov    0x10(%rsp),%eax
  4016de:	69 c0 4b 8d 00 00    	imul   $0x8d4b,%eax,%eax
  4016e4:	89 44 24 10          	mov    %eax,0x10(%rsp)
  4016e8:	8b 44 24 0c          	mov    0xc(%rsp),%eax
  4016ec:	69 c0 0b 24 00 00    	imul   $0x240b,%eax,%eax
  4016f2:	89 44 24 0c          	mov    %eax,0xc(%rsp)
  4016f6:	8b 44 24 20          	mov    0x20(%rsp),%eax
  4016fa:	69 c0 46 75 00 00    	imul   $0x7546,%eax,%eax
  401700:	89 44 24 20          	mov    %eax,0x20(%rsp)
  401704:	8b 44 24 20          	mov    0x20(%rsp),%eax
  401708:	69 c0 13 b6 00 00    	imul   $0xb613,%eax,%eax
  40170e:	89 44 24 20          	mov    %eax,0x20(%rsp)
  401712:	8b 04 24             	mov    (%rsp),%eax
  401715:	69 c0 c3 b5 00 00    	imul   $0xb5c3,%eax,%eax
  40171b:	89 04 24             	mov    %eax,(%rsp)
  40171e:	8b 44 24 14          	mov    0x14(%rsp),%eax
  401722:	69 c0 5b e8 00 00    	imul   $0xe85b,%eax,%eax
  401728:	89 44 24 14          	mov    %eax,0x14(%rsp)
  40172c:	8b 44 24 04          	mov    0x4(%rsp),%eax
  401730:	69 c0 74 10 00 00    	imul   $0x1074,%eax,%eax
  401736:	89 44 24 04          	mov    %eax,0x4(%rsp)
  40173a:	8b 44 24 20          	mov    0x20(%rsp),%eax
  40173e:	69 c0 cc 1a 00 00    	imul   $0x1acc,%eax,%eax
  401744:	89 44 24 20          	mov    %eax,0x20(%rsp)
  401748:	8b 44 24 24          	mov    0x24(%rsp),%eax
  40174c:	69 c0 d1 e2 00 00    	imul   $0xe2d1,%eax,%eax
  401752:	89 44 24 24          	mov    %eax,0x24(%rsp)
  401756:	8b 04 24             	mov    (%rsp),%eax
  401759:	69 c0 f2 92 00 00    	imul   $0x92f2,%eax,%eax
  40175f:	89 04 24             	mov    %eax,(%rsp)
  401762:	8b 44 24 1c          	mov    0x1c(%rsp),%eax
  401766:	69 c0 6b ff 00 00    	imul   $0xff6b,%eax,%eax
  40176c:	89 44 24 1c          	mov    %eax,0x1c(%rsp)
  401770:	8b 44 24 24          	mov    0x24(%rsp),%eax
  401774:	69 c0 8a eb 00 00    	imul   $0xeb8a,%eax,%eax
  40177a:	89 44 24 24          	mov    %eax,0x24(%rsp)
  40177e:	8b 44 24 04          	mov    0x4(%rsp),%eax
  401782:	69 c0 41 40 00 00    	imul   $0x4041,%eax,%eax
  401788:	89 44 24 04          	mov    %eax,0x4(%rsp)
  40178c:	8b 44 24 08          	mov    0x8(%rsp),%eax
  401790:	69 c0 fd 8e 00 00    	imul   $0x8efd,%eax,%eax
  401796:	89 44 24 08          	mov    %eax,0x8(%rsp)
  40179a:	8b 44 24 24          	mov    0x24(%rsp),%eax
  40179e:	69 c0 d1 ed 00 00    	imul   $0xedd1,%eax,%eax
  4017a4:	89 44 24 24          	mov    %eax,0x24(%rsp)
  4017a8:	8b 44 24 18          	mov    0x18(%rsp),%eax
  4017ac:	69 c0 4a e2 00 00    	imul   $0xe24a,%eax,%eax
  4017b2:	89 44 24 18          	mov    %eax,0x18(%rsp)
  4017b6:	8b 44 24 08          	mov    0x8(%rsp),%eax
  4017ba:	69 c0 d7 f3 00 00    	imul   $0xf3d7,%eax,%eax
  4017c0:	89 44 24 08          	mov    %eax,0x8(%rsp)
  4017c4:	8b 44 24 1c          	mov    0x1c(%rsp),%eax
  4017c8:	69 c0 61 33 00 00    	imul   $0x3361,%eax,%eax
  4017ce:	89 44 24 1c          	mov    %eax,0x1c(%rsp)
  4017d2:	8b 44 24 20          	mov    0x20(%rsp),%eax
  4017d6:	69 c0 b2 82 00 00    	imul   $0x82b2,%eax,%eax
  4017dc:	89 44 24 20          	mov    %eax,0x20(%rsp)
  4017e0:	8b 04 24             	mov    (%rsp),%eax
  4017e3:	69 c0 bb 13 00 00    	imul   $0x13bb,%eax,%eax
  4017e9:	89 04 24             	mov    %eax,(%rsp)
  4017ec:	8b 44 24 10          	mov    0x10(%rsp),%eax
  4017f0:	69 c0 e7 5f 00 00    	imul   $0x5fe7,%eax,%eax
  4017f6:	89 44 24 10          	mov    %eax,0x10(%rsp)
  4017fa:	8b 44 24 24          	mov    0x24(%rsp),%eax
  4017fe:	69 c0 75 b0 00 00    	imul   $0xb075,%eax,%eax
  401804:	89 44 24 24          	mov    %eax,0x24(%rsp)
  401808:	8b 44 24 04          	mov    0x4(%rsp),%eax
  40180c:	69 c0 b1 c9 00 00    	imul   $0xc9b1,%eax,%eax
  401812:	89 44 24 04          	mov    %eax,0x4(%rsp)
  401816:	8b 44 24 1c          	mov    0x1c(%rsp),%eax
  40181a:	69 c0 bb f0 00 00    	imul   $0xf0bb,%eax,%eax
  401820:	89 44 24 1c          	mov    %eax,0x1c(%rsp)
  401824:	8b 44 24 24          	mov    0x24(%rsp),%eax
  401828:	69 c0 5e 51 00 00    	imul   $0x515e,%eax,%eax
  40182e:	89 44 24 24          	mov    %eax,0x24(%rsp)
  401832:	8b 44 24 04          	mov    0x4(%rsp),%eax
  401836:	69 c0 23 4e 00 00    	imul   $0x4e23,%eax,%eax
  40183c:	89 44 24 04          	mov    %eax,0x4(%rsp)
  401840:	8b 44 24 24          	mov    0x24(%rsp),%eax
  401844:	69 c0 f5 a3 00 00    	imul   $0xa3f5,%eax,%eax
  40184a:	89 44 24 24          	mov    %eax,0x24(%rsp)
  40184e:	8b 44 24 08          	mov    0x8(%rsp),%eax
  401852:	69 c0 a1 6c 00 00    	imul   $0x6ca1,%eax,%eax
  401858:	89 44 24 08          	mov    %eax,0x8(%rsp)
  40185c:	8b 44 24 20          	mov    0x20(%rsp),%eax
  401860:	69 c0 d8 07 00 00    	imul   $0x7d8,%eax,%eax
  401866:	89 44 24 20          	mov    %eax,0x20(%rsp)
  40186a:	8b 44 24 0c          	mov    0xc(%rsp),%eax
  40186e:	69 c0 1d 16 00 00    	imul   $0x161d,%eax,%eax
  401874:	89 44 24 0c          	mov    %eax,0xc(%rsp)
  401878:	8b 44 24 14          	mov    0x14(%rsp),%eax
  40187c:	69 c0 3b 19 00 00    	imul   $0x193b,%eax,%eax
  401882:	89 44 24 14          	mov    %eax,0x14(%rsp)
  401886:	8b 04 24             	mov    (%rsp),%eax
  401889:	69 c0 c6 70 00 00    	imul   $0x70c6,%eax,%eax
  40188f:	89 04 24             	mov    %eax,(%rsp)
  401892:	8b 44 24 04          	mov    0x4(%rsp),%eax
  401896:	69 c0 bd fe 00 00    	imul   $0xfebd,%eax,%eax
  40189c:	89 44 24 04          	mov    %eax,0x4(%rsp)
  4018a0:	8b 44 24 08          	mov    0x8(%rsp),%eax
  4018a4:	69 c0 2f 76 00 00    	imul   $0x762f,%eax,%eax
  4018aa:	89 44 24 08          	mov    %eax,0x8(%rsp)
  4018ae:	8b 44 24 10          	mov    0x10(%rsp),%eax
  4018b2:	69 c0 9c 8d 00 00    	imul   $0x8d9c,%eax,%eax
  4018b8:	89 44 24 10          	mov    %eax,0x10(%rsp)
  4018bc:	8b 44 24 14          	mov    0x14(%rsp),%eax
  4018c0:	69 c0 e6 b9 00 00    	imul   $0xb9e6,%eax,%eax
  4018c6:	89 44 24 14          	mov    %eax,0x14(%rsp)
  4018ca:	8b 44 24 04          	mov    0x4(%rsp),%eax
  4018ce:	69 c0 00 86 00 00    	imul   $0x8600,%eax,%eax
  4018d4:	89 44 24 04          	mov    %eax,0x4(%rsp)
  4018d8:	8b 44 24 18          	mov    0x18(%rsp),%eax
  4018dc:	69 c0 de 5d 00 00    	imul   $0x5dde,%eax,%eax
  4018e2:	89 44 24 18          	mov    %eax,0x18(%rsp)
  4018e6:	8b 44 24 08          	mov    0x8(%rsp),%eax
  4018ea:	69 c0 9c 35 00 00    	imul   $0x359c,%eax,%eax
  4018f0:	89 44 24 08          	mov    %eax,0x8(%rsp)
  4018f4:	8b 44 24 10          	mov    0x10(%rsp),%eax
  4018f8:	69 c0 35 fc 00 00    	imul   $0xfc35,%eax,%eax
  4018fe:	89 44 24 10          	mov    %eax,0x10(%rsp)
  401902:	8b 44 24 10          	mov    0x10(%rsp),%eax
  401906:	69 c0 47 d2 00 00    	imul   $0xd247,%eax,%eax
  40190c:	89 44 24 10          	mov    %eax,0x10(%rsp)
  401910:	8b 04 24             	mov    (%rsp),%eax
  401913:	69 c0 c4 d7 00 00    	imul   $0xd7c4,%eax,%eax
  401919:	89 04 24             	mov    %eax,(%rsp)
  40191c:	8b 44 24 04          	mov    0x4(%rsp),%eax
  401920:	69 c0 05 84 00 00    	imul   $0x8405,%eax,%eax
  401926:	89 44 24 04          	mov    %eax,0x4(%rsp)
  40192a:	8b 44 24 1c          	mov    0x1c(%rsp),%eax
  40192e:	69 c0 73 5a 00 00    	imul   $0x5a73,%eax,%eax
  401934:	89 44 24 1c          	mov    %eax,0x1c(%rsp)
  401938:	8b 44 24 08          	mov    0x8(%rsp),%eax
  40193c:	69 c0 03 40 00 00    	imul   $0x4003,%eax,%eax
  401942:	89 44 24 08          	mov    %eax,0x8(%rsp)
  401946:	8b 44 24 24          	mov    0x24(%rsp),%eax
  40194a:	69 c0 86 81 00 00    	imul   $0x8186,%eax,%eax
  401950:	89 44 24 24          	mov    %eax,0x24(%rsp)
  401954:	8b 44 24 08          	mov    0x8(%rsp),%eax
  401958:	69 c0 f7 68 00 00    	imul   $0x68f7,%eax,%eax
  40195e:	89 44 24 08          	mov    %eax,0x8(%rsp)
  401962:	ba 00 00 00 00       	mov    $0x0,%edx
  401967:	b8 00 00 00 00       	mov    $0x0,%eax
  40196c:	eb 0a                	jmp    401978 <scramble+0x505>
  40196e:	89 d1                	mov    %edx,%ecx
  401970:	8b 0c 8c             	mov    (%rsp,%rcx,4),%ecx
  401973:	01 c8                	add    %ecx,%eax
  401975:	83 c2 01             	add    $0x1,%edx
  401978:	83 fa 09             	cmp    $0x9,%edx
  40197b:	76 f1                	jbe    40196e <scramble+0x4fb>
  40197d:	48 8b 74 24 28       	mov    0x28(%rsp),%rsi
  401982:	64 48 33 34 25 28 00 	xor    %fs:0x28,%rsi
  401989:	00 00 
  40198b:	74 05                	je     401992 <scramble+0x51f>
  40198d:	e8 4e f4 ff ff       	callq  400de0 <__stack_chk_fail@plt>
  401992:	48 83 c4 38          	add    $0x38,%rsp
  401996:	c3                   	retq   

0000000000401997 <getbuf>:
  401997:	48 83 ec 38          	sub    $0x38,%rsp
  40199b:	48 89 e7             	mov    %rsp,%rdi
  40199e:	e8 0d 04 00 00       	callq  401db0 <Gets>
  4019a3:	b8 01 00 00 00       	mov    $0x1,%eax
  4019a8:	48 83 c4 38          	add    $0x38,%rsp
  4019ac:	c3                   	retq   

00000000004019ad <calcLastFive>:
  4019ad:	48 83 ec 38          	sub    $0x38,%rsp
  4019b1:	64 48 8b 04 25 28 00 	mov    %fs:0x28,%rax
  4019b8:	00 00 
  4019ba:	48 89 44 24 28       	mov    %rax,0x28(%rsp)
  4019bf:	31 c0                	xor    %eax,%eax
  4019c1:	48 8b 15 90 37 20 00 	mov    0x203790(%rip),%rdx        # 605158 <user_id>
  4019c8:	be 50 37 40 00       	mov    $0x403750,%esi
  4019cd:	48 8d 7c 24 10       	lea    0x10(%rsp),%rdi
  4019d2:	e8 79 f5 ff ff       	callq  400f50 <sprintf@plt>
  4019d7:	48 8d 74 24 16       	lea    0x16(%rsp),%rsi
  4019dc:	48 89 e7             	mov    %rsp,%rdi
  4019df:	e8 cc f3 ff ff       	callq  400db0 <strcpy@plt>
  4019e4:	48 89 e7             	mov    %rsp,%rdi
  4019e7:	b8 00 00 00 00       	mov    $0x0,%eax
  4019ec:	e8 3f f5 ff ff       	callq  400f30 <atoi@plt>
  4019f1:	89 05 89 47 20 00    	mov    %eax,0x204789(%rip)        # 606180 <last_five>
  4019f7:	48 8b 44 24 28       	mov    0x28(%rsp),%rax
  4019fc:	64 48 33 04 25 28 00 	xor    %fs:0x28,%rax
  401a03:	00 00 
  401a05:	74 05                	je     401a0c <calcLastFive+0x5f>
  401a07:	e8 d4 f3 ff ff       	callq  400de0 <__stack_chk_fail@plt>
  401a0c:	48 83 c4 38          	add    $0x38,%rsp
  401a10:	c3                   	retq   

0000000000401a11 <touch1>:
  401a11:	48 83 ec 08          	sub    $0x8,%rsp
  401a15:	c7 05 dd 37 20 00 01 	movl   $0x1,0x2037dd(%rip)        # 6051fc <vlevel>
  401a1c:	00 00 00 
  401a1f:	bf 6c 37 40 00       	mov    $0x40376c,%edi
  401a24:	e8 97 f3 ff ff       	callq  400dc0 <puts@plt>
  401a29:	be 01 00 00 00       	mov    $0x1,%esi
  401a2e:	bf 01 00 00 00       	mov    $0x1,%edi
  401a33:	e8 7e 05 00 00       	callq  401fb6 <validate>
  401a38:	bf 00 00 00 00       	mov    $0x0,%edi
  401a3d:	e8 1e f5 ff ff       	callq  400f60 <exit@plt>

0000000000401a42 <touch2>:
  401a42:	48 83 ec 08          	sub    $0x8,%rsp
  401a46:	89 fa                	mov    %edi,%edx
  401a48:	c7 05 aa 37 20 00 02 	movl   $0x2,0x2037aa(%rip)        # 6051fc <vlevel>
  401a4f:	00 00 00 
  401a52:	39 3d ac 37 20 00    	cmp    %edi,0x2037ac(%rip)        # 605204 <magic>
  401a58:	75 25                	jne    401a7f <touch2+0x3d>
  401a5a:	be 90 37 40 00       	mov    $0x403790,%esi
  401a5f:	bf 01 00 00 00       	mov    $0x1,%edi
  401a64:	b8 00 00 00 00       	mov    $0x0,%eax
  401a69:	e8 82 f4 ff ff       	callq  400ef0 <__printf_chk@plt>
  401a6e:	be 01 00 00 00       	mov    $0x1,%esi
  401a73:	bf 02 00 00 00       	mov    $0x2,%edi
  401a78:	e8 39 05 00 00       	callq  401fb6 <validate>
  401a7d:	eb 1e                	jmp    401a9d <touch2+0x5b>
  401a7f:	be b8 37 40 00       	mov    $0x4037b8,%esi
  401a84:	bf 01 00 00 00       	mov    $0x1,%edi
  401a89:	b8 00 00 00 00       	mov    $0x0,%eax
  401a8e:	e8 5d f4 ff ff       	callq  400ef0 <__printf_chk@plt>
  401a93:	bf 02 00 00 00       	mov    $0x2,%edi
  401a98:	e8 ed 05 00 00       	callq  40208a <fail>
  401a9d:	bf 00 00 00 00       	mov    $0x0,%edi
  401aa2:	e8 b9 f4 ff ff       	callq  400f60 <exit@plt>

0000000000401aa7 <hexmatch>:
  401aa7:	41 54                	push   %r12
  401aa9:	55                   	push   %rbp
  401aaa:	53                   	push   %rbx
  401aab:	48 83 c4 80          	add    $0xffffffffffffff80,%rsp
  401aaf:	89 fd                	mov    %edi,%ebp
  401ab1:	48 89 f3             	mov    %rsi,%rbx
  401ab4:	64 48 8b 04 25 28 00 	mov    %fs:0x28,%rax
  401abb:	00 00 
  401abd:	48 89 44 24 78       	mov    %rax,0x78(%rsp)
  401ac2:	31 c0                	xor    %eax,%eax
  401ac4:	e8 e7 f3 ff ff       	callq  400eb0 <random@plt>
  401ac9:	48 89 c1             	mov    %rax,%rcx
  401acc:	48 ba 67 66 66 66 66 	movabs $0x6666666666666667,%rdx
  401ad3:	66 66 66 
  401ad6:	48 f7 ea             	imul   %rdx
  401ad9:	48 c1 fa 05          	sar    $0x5,%rdx
  401add:	48 89 c8             	mov    %rcx,%rax
  401ae0:	48 c1 f8 3f          	sar    $0x3f,%rax
  401ae4:	48 29 c2             	sub    %rax,%rdx
  401ae7:	48 8d 14 92          	lea    (%rdx,%rdx,4),%rdx
  401aeb:	48 89 d0             	mov    %rdx,%rax
  401aee:	48 c1 e0 04          	shl    $0x4,%rax
  401af2:	48 29 c1             	sub    %rax,%rcx
  401af5:	4c 8d 24 0c          	lea    (%rsp,%rcx,1),%r12
  401af9:	41 89 e8             	mov    %ebp,%r8d
  401afc:	b9 89 37 40 00       	mov    $0x403789,%ecx
  401b01:	48 c7 c2 ff ff ff ff 	mov    $0xffffffffffffffff,%rdx
  401b08:	be 01 00 00 00       	mov    $0x1,%esi
  401b0d:	4c 89 e7             	mov    %r12,%rdi
  401b10:	b8 00 00 00 00       	mov    $0x0,%eax
  401b15:	e8 86 f4 ff ff       	callq  400fa0 <__sprintf_chk@plt>
  401b1a:	ba 09 00 00 00       	mov    $0x9,%edx
  401b1f:	4c 89 e6             	mov    %r12,%rsi
  401b22:	48 89 df             	mov    %rbx,%rdi
  401b25:	e8 76 f2 ff ff       	callq  400da0 <strncmp@plt>
  401b2a:	85 c0                	test   %eax,%eax
  401b2c:	0f 94 c0             	sete   %al
  401b2f:	48 8b 5c 24 78       	mov    0x78(%rsp),%rbx
  401b34:	64 48 33 1c 25 28 00 	xor    %fs:0x28,%rbx
  401b3b:	00 00 
  401b3d:	74 05                	je     401b44 <hexmatch+0x9d>
  401b3f:	e8 9c f2 ff ff       	callq  400de0 <__stack_chk_fail@plt>
  401b44:	0f b6 c0             	movzbl %al,%eax
  401b47:	48 83 ec 80          	sub    $0xffffffffffffff80,%rsp
  401b4b:	5b                   	pop    %rbx
  401b4c:	5d                   	pop    %rbp
  401b4d:	41 5c                	pop    %r12
  401b4f:	c3                   	retq   

0000000000401b50 <touch3>:
  401b50:	53                   	push   %rbx
  401b51:	48 89 fb             	mov    %rdi,%rbx
  401b54:	c7 05 9e 36 20 00 03 	movl   $0x3,0x20369e(%rip)        # 6051fc <vlevel>
  401b5b:	00 00 00 
  401b5e:	48 89 fe             	mov    %rdi,%rsi
  401b61:	8b 3d 9d 36 20 00    	mov    0x20369d(%rip),%edi        # 605204 <magic>
  401b67:	e8 3b ff ff ff       	callq  401aa7 <hexmatch>
  401b6c:	85 c0                	test   %eax,%eax
  401b6e:	74 28                	je     401b98 <touch3+0x48>
  401b70:	48 89 da             	mov    %rbx,%rdx
  401b73:	be e0 37 40 00       	mov    $0x4037e0,%esi
  401b78:	bf 01 00 00 00       	mov    $0x1,%edi
  401b7d:	b8 00 00 00 00       	mov    $0x0,%eax
  401b82:	e8 69 f3 ff ff       	callq  400ef0 <__printf_chk@plt>
  401b87:	be 01 00 00 00       	mov    $0x1,%esi
  401b8c:	bf 03 00 00 00       	mov    $0x3,%edi
  401b91:	e8 20 04 00 00       	callq  401fb6 <validate>
  401b96:	eb 21                	jmp    401bb9 <touch3+0x69>
  401b98:	48 89 da             	mov    %rbx,%rdx
  401b9b:	be 08 38 40 00       	mov    $0x403808,%esi
  401ba0:	bf 01 00 00 00       	mov    $0x1,%edi
  401ba5:	b8 00 00 00 00       	mov    $0x0,%eax
  401baa:	e8 41 f3 ff ff       	callq  400ef0 <__printf_chk@plt>
  401baf:	bf 03 00 00 00       	mov    $0x3,%edi
  401bb4:	e8 d1 04 00 00       	callq  40208a <fail>
  401bb9:	bf 00 00 00 00       	mov    $0x0,%edi
  401bbe:	e8 9d f3 ff ff       	callq  400f60 <exit@plt>

0000000000401bc3 <test>:
  401bc3:	48 83 ec 08          	sub    $0x8,%rsp
  401bc7:	b8 00 00 00 00       	mov    $0x0,%eax
  401bcc:	e8 c6 fd ff ff       	callq  401997 <getbuf>
  401bd1:	89 c2                	mov    %eax,%edx
  401bd3:	be 30 38 40 00       	mov    $0x403830,%esi
  401bd8:	bf 01 00 00 00       	mov    $0x1,%edi
  401bdd:	b8 00 00 00 00       	mov    $0x0,%eax
  401be2:	e8 09 f3 ff ff       	callq  400ef0 <__printf_chk@plt>
  401be7:	48 83 c4 08          	add    $0x8,%rsp
  401beb:	c3                   	retq   

0000000000401bec <start_farm>:
  401bec:	b8 01 00 00 00       	mov    $0x1,%eax
  401bf1:	c3                   	retq   

0000000000401bf2 <addval_175>:
  401bf2:	8d 87 48 89 c7 c3    	lea    -0x3c3876b8(%rdi),%eax
  401bf8:	c3                   	retq   

0000000000401bf9 <addval_460>:
  401bf9:	8d 87 a0 d5 d8 90    	lea    -0x6f272a60(%rdi),%eax
  401bff:	c3                   	retq   

0000000000401c00 <addval_272>:
  401c00:	8d 87 58 90 90 c3    	lea    -0x3c6f6fa8(%rdi),%eax
  401c06:	c3                   	retq   

0000000000401c07 <addval_476>:
  401c07:	8d 87 58 91 90 90    	lea    -0x6f6f6ea8(%rdi),%eax
  401c0d:	c3                   	retq   

0000000000401c0e <setval_382>:
  401c0e:	c7 07 a1 4a 89 c7    	movl   $0xc7894aa1,(%rdi)
  401c14:	c3                   	retq   

0000000000401c15 <addval_202>:
  401c15:	8d 87 48 09 c7 90    	lea    -0x6f38f6b8(%rdi),%eax
  401c1b:	c3                   	retq   

0000000000401c1c <getval_474>:
  401c1c:	b8 48 89 c7 c3       	mov    $0xc3c78948,%eax
  401c21:	c3                   	retq   

0000000000401c22 <addval_349>:
  401c22:	8d 87 c9 58 90 c3    	lea    -0x3c6fa737(%rdi),%eax
  401c28:	c3                   	retq   

0000000000401c29 <mid_farm>:
  401c29:	b8 01 00 00 00       	mov    $0x1,%eax
  401c2e:	c3                   	retq   

0000000000401c2f <add_xy>:
  401c2f:	48 8d 04 37          	lea    (%rdi,%rsi,1),%rax
  401c33:	c3                   	retq   

0000000000401c34 <getval_377>:
  401c34:	b8 48 89 e0 c7       	mov    $0xc7e08948,%eax
  401c39:	c3                   	retq   

0000000000401c3a <setval_134>:
  401c3a:	c7 07 8d ca 20 c0    	movl   $0xc020ca8d,(%rdi)
  401c40:	c3                   	retq   

0000000000401c41 <addval_315>:
  401c41:	8d 87 99 ca 38 c0    	lea    -0x3fc73567(%rdi),%eax
  401c47:	c3                   	retq   

0000000000401c48 <addval_394>:
  401c48:	8d 87 89 d6 28 c9    	lea    -0x36d72977(%rdi),%eax
  401c4e:	c3                   	retq   

0000000000401c4f <setval_464>:
  401c4f:	c7 07 c9 c1 c3 99    	movl   $0x99c3c1c9,(%rdi)
  401c55:	c3                   	retq   

0000000000401c56 <setval_192>:
  401c56:	c7 07 89 d6 38 c9    	movl   $0xc938d689,(%rdi)
  401c5c:	c3                   	retq   

0000000000401c5d <getval_266>:
  401c5d:	b8 99 d6 38 c0       	mov    $0xc038d699,%eax
  401c62:	c3                   	retq   

0000000000401c63 <setval_230>:
  401c63:	c7 07 89 d6 a4 c9    	movl   $0xc9a4d689,(%rdi)
  401c69:	c3                   	retq   

0000000000401c6a <getval_355>:
  401c6a:	b8 89 d6 94 d2       	mov    $0xd294d689,%eax
  401c6f:	c3                   	retq   

0000000000401c70 <addval_458>:
  401c70:	8d 87 ac 48 8b e0    	lea    -0x1f74b754(%rdi),%eax
  401c76:	c3                   	retq   

0000000000401c77 <addval_468>:
  401c77:	8d 87 89 d6 c4 c0    	lea    -0x3f3b2977(%rdi),%eax
  401c7d:	c3                   	retq   

0000000000401c7e <addval_223>:
  401c7e:	8d 87 48 99 e0 c3    	lea    -0x3c1f66b8(%rdi),%eax
  401c84:	c3                   	retq   

0000000000401c85 <getval_431>:
  401c85:	b8 89 ca 20 db       	mov    $0xdb20ca89,%eax
  401c8a:	c3                   	retq   

0000000000401c8b <addval_261>:
  401c8b:	8d 87 89 c1 08 db    	lea    -0x24f73e77(%rdi),%eax
  401c91:	c3                   	retq   

0000000000401c92 <getval_359>:
  401c92:	b8 89 d6 c7 3c       	mov    $0x3cc7d689,%eax
  401c97:	c3                   	retq   

0000000000401c98 <addval_441>:
  401c98:	8d 87 89 ca 28 c0    	lea    -0x3fd73577(%rdi),%eax
  401c9e:	c3                   	retq   

0000000000401c9f <addval_311>:
  401c9f:	8d 87 48 89 e0 c1    	lea    -0x3e1f76b8(%rdi),%eax
  401ca5:	c3                   	retq   

0000000000401ca6 <addval_184>:
  401ca6:	8d 87 1e 48 99 e0    	lea    -0x1f66b7e2(%rdi),%eax
  401cac:	c3                   	retq   

0000000000401cad <addval_372>:
  401cad:	8d 87 4c 48 89 e0    	lea    -0x1f76b7b4(%rdi),%eax
  401cb3:	c3                   	retq   

0000000000401cb4 <addval_209>:
  401cb4:	8d 87 48 89 e0 c7    	lea    -0x381f76b8(%rdi),%eax
  401cba:	c3                   	retq   

0000000000401cbb <addval_496>:
  401cbb:	8d 87 99 c1 20 db    	lea    -0x24df3e67(%rdi),%eax
  401cc1:	c3                   	retq   

0000000000401cc2 <setval_376>:
  401cc2:	c7 07 48 89 e0 90    	movl   $0x90e08948,(%rdi)
  401cc8:	c3                   	retq   

0000000000401cc9 <getval_448>:
  401cc9:	b8 89 c1 90 c1       	mov    $0xc190c189,%eax
  401cce:	c3                   	retq   

0000000000401ccf <getval_152>:
  401ccf:	b8 89 ca 94 d2       	mov    $0xd294ca89,%eax
  401cd4:	c3                   	retq   

0000000000401cd5 <getval_110>:
  401cd5:	b8 89 ca 00 c0       	mov    $0xc000ca89,%eax
  401cda:	c3                   	retq   

0000000000401cdb <addval_350>:
  401cdb:	8d 87 81 c1 90 90    	lea    -0x6f6f3e7f(%rdi),%eax
  401ce1:	c3                   	retq   

0000000000401ce2 <addval_327>:
  401ce2:	8d 87 89 c1 94 db    	lea    -0x246b3e77(%rdi),%eax
  401ce8:	c3                   	retq   

0000000000401ce9 <addval_473>:
  401ce9:	8d 87 89 c1 08 db    	lea    -0x24f73e77(%rdi),%eax
  401cef:	c3                   	retq   

0000000000401cf0 <addval_446>:
  401cf0:	8d 87 89 d6 08 d2    	lea    -0x2df72977(%rdi),%eax
  401cf6:	c3                   	retq   

0000000000401cf7 <getval_485>:
  401cf7:	b8 89 c1 18 c9       	mov    $0xc918c189,%eax
  401cfc:	c3                   	retq   

0000000000401cfd <getval_125>:
  401cfd:	b8 89 ca 84 d2       	mov    $0xd284ca89,%eax
  401d02:	c3                   	retq   

0000000000401d03 <setval_237>:
  401d03:	c7 07 89 ca 78 db    	movl   $0xdb78ca89,(%rdi)
  401d09:	c3                   	retq   

0000000000401d0a <end_farm>:
  401d0a:	b8 01 00 00 00       	mov    $0x1,%eax
  401d0f:	c3                   	retq   

0000000000401d10 <save_char>:
  401d10:	8b 05 0e 41 20 00    	mov    0x20410e(%rip),%eax        # 605e24 <gets_cnt>
  401d16:	3d ff 03 00 00       	cmp    $0x3ff,%eax
  401d1b:	7f 49                	jg     401d66 <save_char+0x56>
  401d1d:	8d 14 40             	lea    (%rax,%rax,2),%edx
  401d20:	89 f9                	mov    %edi,%ecx
  401d22:	c0 e9 04             	shr    $0x4,%cl
  401d25:	83 e1 0f             	and    $0xf,%ecx
  401d28:	0f b6 b1 10 3b 40 00 	movzbl 0x403b10(%rcx),%esi
  401d2f:	48 63 ca             	movslq %edx,%rcx
  401d32:	40 88 b1 20 52 60 00 	mov    %sil,0x605220(%rcx)
  401d39:	8d 4a 01             	lea    0x1(%rdx),%ecx
  401d3c:	83 e7 0f             	and    $0xf,%edi
  401d3f:	0f b6 b7 10 3b 40 00 	movzbl 0x403b10(%rdi),%esi
  401d46:	48 63 c9             	movslq %ecx,%rcx
  401d49:	40 88 b1 20 52 60 00 	mov    %sil,0x605220(%rcx)
  401d50:	83 c2 02             	add    $0x2,%edx
  401d53:	48 63 d2             	movslq %edx,%rdx
  401d56:	c6 82 20 52 60 00 20 	movb   $0x20,0x605220(%rdx)
  401d5d:	83 c0 01             	add    $0x1,%eax
  401d60:	89 05 be 40 20 00    	mov    %eax,0x2040be(%rip)        # 605e24 <gets_cnt>
  401d66:	f3 c3                	repz retq 

0000000000401d68 <save_term>:
  401d68:	8b 05 b6 40 20 00    	mov    0x2040b6(%rip),%eax        # 605e24 <gets_cnt>
  401d6e:	8d 04 40             	lea    (%rax,%rax,2),%eax
  401d71:	48 98                	cltq   
  401d73:	c6 80 20 52 60 00 00 	movb   $0x0,0x605220(%rax)
  401d7a:	c3                   	retq   

0000000000401d7b <check_fail>:
  401d7b:	48 83 ec 08          	sub    $0x8,%rsp
  401d7f:	0f be 15 ba 40 20 00 	movsbl 0x2040ba(%rip),%edx        # 605e40 <target_prefix>
  401d86:	41 b8 20 52 60 00    	mov    $0x605220,%r8d
  401d8c:	8b 0d 66 34 20 00    	mov    0x203466(%rip),%ecx        # 6051f8 <check_level>
  401d92:	be 53 38 40 00       	mov    $0x403853,%esi
  401d97:	bf 01 00 00 00       	mov    $0x1,%edi
  401d9c:	b8 00 00 00 00       	mov    $0x0,%eax
  401da1:	e8 4a f1 ff ff       	callq  400ef0 <__printf_chk@plt>
  401da6:	bf 01 00 00 00       	mov    $0x1,%edi
  401dab:	e8 b0 f1 ff ff       	callq  400f60 <exit@plt>

0000000000401db0 <Gets>:
  401db0:	41 54                	push   %r12
  401db2:	55                   	push   %rbp
  401db3:	53                   	push   %rbx
  401db4:	49 89 fc             	mov    %rdi,%r12
  401db7:	c7 05 63 40 20 00 00 	movl   $0x0,0x204063(%rip)        # 605e24 <gets_cnt>
  401dbe:	00 00 00 
  401dc1:	48 89 fb             	mov    %rdi,%rbx
  401dc4:	eb 11                	jmp    401dd7 <Gets+0x27>
  401dc6:	48 8d 6b 01          	lea    0x1(%rbx),%rbp
  401dca:	88 03                	mov    %al,(%rbx)
  401dcc:	0f b6 f8             	movzbl %al,%edi
  401dcf:	e8 3c ff ff ff       	callq  401d10 <save_char>
  401dd4:	48 89 eb             	mov    %rbp,%rbx
  401dd7:	48 8b 3d 12 34 20 00 	mov    0x203412(%rip),%rdi        # 6051f0 <infile>
  401dde:	e8 dd f0 ff ff       	callq  400ec0 <_IO_getc@plt>
  401de3:	83 f8 ff             	cmp    $0xffffffff,%eax
  401de6:	74 05                	je     401ded <Gets+0x3d>
  401de8:	83 f8 0a             	cmp    $0xa,%eax
  401deb:	75 d9                	jne    401dc6 <Gets+0x16>
  401ded:	c6 03 00             	movb   $0x0,(%rbx)
  401df0:	b8 00 00 00 00       	mov    $0x0,%eax
  401df5:	e8 6e ff ff ff       	callq  401d68 <save_term>
  401dfa:	4c 89 e0             	mov    %r12,%rax
  401dfd:	5b                   	pop    %rbx
  401dfe:	5d                   	pop    %rbp
  401dff:	41 5c                	pop    %r12
  401e01:	c3                   	retq   

0000000000401e02 <notify_server>:
  401e02:	53                   	push   %rbx
  401e03:	48 81 ec 10 40 00 00 	sub    $0x4010,%rsp
  401e0a:	64 48 8b 04 25 28 00 	mov    %fs:0x28,%rax
  401e11:	00 00 
  401e13:	48 89 84 24 08 40 00 	mov    %rax,0x4008(%rsp)
  401e1a:	00 
  401e1b:	31 c0                	xor    %eax,%eax
  401e1d:	83 3d e4 33 20 00 00 	cmpl   $0x0,0x2033e4(%rip)        # 605208 <is_checker>
  401e24:	0f 85 6b 01 00 00    	jne    401f95 <notify_server+0x193>
  401e2a:	89 fb                	mov    %edi,%ebx
  401e2c:	8b 05 f2 3f 20 00    	mov    0x203ff2(%rip),%eax        # 605e24 <gets_cnt>
  401e32:	83 c0 64             	add    $0x64,%eax
  401e35:	3d 00 20 00 00       	cmp    $0x2000,%eax
  401e3a:	7e 1e                	jle    401e5a <notify_server+0x58>
  401e3c:	be 68 39 40 00       	mov    $0x403968,%esi
  401e41:	bf 01 00 00 00       	mov    $0x1,%edi
  401e46:	b8 00 00 00 00       	mov    $0x0,%eax
  401e4b:	e8 a0 f0 ff ff       	callq  400ef0 <__printf_chk@plt>
  401e50:	bf 01 00 00 00       	mov    $0x1,%edi
  401e55:	e8 06 f1 ff ff       	callq  400f60 <exit@plt>
  401e5a:	0f be 05 df 3f 20 00 	movsbl 0x203fdf(%rip),%eax        # 605e40 <target_prefix>
  401e61:	83 3d 18 33 20 00 00 	cmpl   $0x0,0x203318(%rip)        # 605180 <notify>
  401e68:	74 08                	je     401e72 <notify_server+0x70>
  401e6a:	8b 15 90 33 20 00    	mov    0x203390(%rip),%edx        # 605200 <authkey>
  401e70:	eb 05                	jmp    401e77 <notify_server+0x75>
  401e72:	ba ff ff ff ff       	mov    $0xffffffff,%edx
  401e77:	85 db                	test   %ebx,%ebx
  401e79:	74 08                	je     401e83 <notify_server+0x81>
  401e7b:	41 b9 69 38 40 00    	mov    $0x403869,%r9d
  401e81:	eb 06                	jmp    401e89 <notify_server+0x87>
  401e83:	41 b9 6e 38 40 00    	mov    $0x40386e,%r9d
  401e89:	68 20 52 60 00       	pushq  $0x605220
  401e8e:	56                   	push   %rsi
  401e8f:	50                   	push   %rax
  401e90:	52                   	push   %rdx
  401e91:	44 8b 05 c8 32 20 00 	mov    0x2032c8(%rip),%r8d        # 605160 <target_id>
  401e98:	b9 73 38 40 00       	mov    $0x403873,%ecx
  401e9d:	ba 00 20 00 00       	mov    $0x2000,%edx
  401ea2:	be 01 00 00 00       	mov    $0x1,%esi
  401ea7:	48 8d 7c 24 20       	lea    0x20(%rsp),%rdi
  401eac:	b8 00 00 00 00       	mov    $0x0,%eax
  401eb1:	e8 ea f0 ff ff       	callq  400fa0 <__sprintf_chk@plt>
  401eb6:	48 83 c4 20          	add    $0x20,%rsp
  401eba:	83 3d bf 32 20 00 00 	cmpl   $0x0,0x2032bf(%rip)        # 605180 <notify>
  401ec1:	0f 84 ce 00 00 00    	je     401f95 <notify_server+0x193>
  401ec7:	85 db                	test   %ebx,%ebx
  401ec9:	74 6b                	je     401f36 <notify_server+0x134>
  401ecb:	4c 8d 8c 24 00 20 00 	lea    0x2000(%rsp),%r9
  401ed2:	00 
  401ed3:	41 b8 00 00 00 00    	mov    $0x0,%r8d
  401ed9:	48 89 e1             	mov    %rsp,%rcx
  401edc:	48 8b 15 85 32 20 00 	mov    0x203285(%rip),%rdx        # 605168 <lab>
  401ee3:	48 8b 35 86 32 20 00 	mov    0x203286(%rip),%rsi        # 605170 <course>
  401eea:	48 8b 3d 67 32 20 00 	mov    0x203267(%rip),%rdi        # 605158 <user_id>
  401ef1:	e8 5f 14 00 00       	callq  403355 <driver_post>
  401ef6:	85 c0                	test   %eax,%eax
  401ef8:	79 26                	jns    401f20 <notify_server+0x11e>
  401efa:	48 8d 94 24 00 20 00 	lea    0x2000(%rsp),%rdx
  401f01:	00 
  401f02:	be 8f 38 40 00       	mov    $0x40388f,%esi
  401f07:	bf 01 00 00 00       	mov    $0x1,%edi
  401f0c:	b8 00 00 00 00       	mov    $0x0,%eax
  401f11:	e8 da ef ff ff       	callq  400ef0 <__printf_chk@plt>
  401f16:	bf 01 00 00 00       	mov    $0x1,%edi
  401f1b:	e8 40 f0 ff ff       	callq  400f60 <exit@plt>
  401f20:	bf 98 39 40 00       	mov    $0x403998,%edi
  401f25:	e8 96 ee ff ff       	callq  400dc0 <puts@plt>
  401f2a:	bf ad 38 40 00       	mov    $0x4038ad,%edi
  401f2f:	e8 8c ee ff ff       	callq  400dc0 <puts@plt>
  401f34:	eb 5f                	jmp    401f95 <notify_server+0x193>
  401f36:	4c 8d 8c 24 00 20 00 	lea    0x2000(%rsp),%r9
  401f3d:	00 
  401f3e:	41 b8 00 00 00 00    	mov    $0x0,%r8d
  401f44:	48 89 e1             	mov    %rsp,%rcx
  401f47:	48 8b 15 1a 32 20 00 	mov    0x20321a(%rip),%rdx        # 605168 <lab>
  401f4e:	48 8b 35 1b 32 20 00 	mov    0x20321b(%rip),%rsi        # 605170 <course>
  401f55:	48 8b 3d fc 31 20 00 	mov    0x2031fc(%rip),%rdi        # 605158 <user_id>
  401f5c:	e8 f4 13 00 00       	callq  403355 <driver_post>
  401f61:	85 c0                	test   %eax,%eax
  401f63:	79 26                	jns    401f8b <notify_server+0x189>
  401f65:	48 8d 94 24 00 20 00 	lea    0x2000(%rsp),%rdx
  401f6c:	00 
  401f6d:	be 8f 38 40 00       	mov    $0x40388f,%esi
  401f72:	bf 01 00 00 00       	mov    $0x1,%edi
  401f77:	b8 00 00 00 00       	mov    $0x0,%eax
  401f7c:	e8 6f ef ff ff       	callq  400ef0 <__printf_chk@plt>
  401f81:	bf 01 00 00 00       	mov    $0x1,%edi
  401f86:	e8 d5 ef ff ff       	callq  400f60 <exit@plt>
  401f8b:	bf b7 38 40 00       	mov    $0x4038b7,%edi
  401f90:	e8 2b ee ff ff       	callq  400dc0 <puts@plt>
  401f95:	48 8b 84 24 08 40 00 	mov    0x4008(%rsp),%rax
  401f9c:	00 
  401f9d:	64 48 33 04 25 28 00 	xor    %fs:0x28,%rax
  401fa4:	00 00 
  401fa6:	74 05                	je     401fad <notify_server+0x1ab>
  401fa8:	e8 33 ee ff ff       	callq  400de0 <__stack_chk_fail@plt>
  401fad:	48 81 c4 10 40 00 00 	add    $0x4010,%rsp
  401fb4:	5b                   	pop    %rbx
  401fb5:	c3                   	retq   

0000000000401fb6 <validate>:
  401fb6:	53                   	push   %rbx
  401fb7:	89 fb                	mov    %edi,%ebx
  401fb9:	83 3d 48 32 20 00 00 	cmpl   $0x0,0x203248(%rip)        # 605208 <is_checker>
  401fc0:	74 6b                	je     40202d <validate+0x77>
  401fc2:	39 3d 34 32 20 00    	cmp    %edi,0x203234(%rip)        # 6051fc <vlevel>
  401fc8:	74 14                	je     401fde <validate+0x28>
  401fca:	bf be 38 40 00       	mov    $0x4038be,%edi
  401fcf:	e8 ec ed ff ff       	callq  400dc0 <puts@plt>
  401fd4:	b8 00 00 00 00       	mov    $0x0,%eax
  401fd9:	e8 9d fd ff ff       	callq  401d7b <check_fail>
  401fde:	8b 15 14 32 20 00    	mov    0x203214(%rip),%edx        # 6051f8 <check_level>
  401fe4:	39 d7                	cmp    %edx,%edi
  401fe6:	74 20                	je     402008 <validate+0x52>
  401fe8:	89 f9                	mov    %edi,%ecx
  401fea:	be d0 39 40 00       	mov    $0x4039d0,%esi
  401fef:	bf 01 00 00 00       	mov    $0x1,%edi
  401ff4:	b8 00 00 00 00       	mov    $0x0,%eax
  401ff9:	e8 f2 ee ff ff       	callq  400ef0 <__printf_chk@plt>
  401ffe:	b8 00 00 00 00       	mov    $0x0,%eax
  402003:	e8 73 fd ff ff       	callq  401d7b <check_fail>
  402008:	0f be 15 31 3e 20 00 	movsbl 0x203e31(%rip),%edx        # 605e40 <target_prefix>
  40200f:	41 b8 20 52 60 00    	mov    $0x605220,%r8d
  402015:	89 f9                	mov    %edi,%ecx
  402017:	be dc 38 40 00       	mov    $0x4038dc,%esi
  40201c:	bf 01 00 00 00       	mov    $0x1,%edi
  402021:	b8 00 00 00 00       	mov    $0x0,%eax
  402026:	e8 c5 ee ff ff       	callq  400ef0 <__printf_chk@plt>
  40202b:	eb 5b                	jmp    402088 <validate+0xd2>
  40202d:	3b 3d c9 31 20 00    	cmp    0x2031c9(%rip),%edi        # 6051fc <vlevel>
  402033:	74 18                	je     40204d <validate+0x97>
  402035:	bf be 38 40 00       	mov    $0x4038be,%edi
  40203a:	e8 81 ed ff ff       	callq  400dc0 <puts@plt>
  40203f:	89 de                	mov    %ebx,%esi
  402041:	bf 00 00 00 00       	mov    $0x0,%edi
  402046:	e8 b7 fd ff ff       	callq  401e02 <notify_server>
  40204b:	eb 3b                	jmp    402088 <validate+0xd2>
  40204d:	85 f6                	test   %esi,%esi
  40204f:	75 0e                	jne    40205f <validate+0xa9>
  402051:	89 fe                	mov    %edi,%esi
  402053:	bf 00 00 00 00       	mov    $0x0,%edi
  402058:	e8 a5 fd ff ff       	callq  401e02 <notify_server>
  40205d:	eb 29                	jmp    402088 <validate+0xd2>
  40205f:	0f be 0d da 3d 20 00 	movsbl 0x203dda(%rip),%ecx        # 605e40 <target_prefix>
  402066:	89 fa                	mov    %edi,%edx
  402068:	be f8 39 40 00       	mov    $0x4039f8,%esi
  40206d:	bf 01 00 00 00       	mov    $0x1,%edi
  402072:	b8 00 00 00 00       	mov    $0x0,%eax
  402077:	e8 74 ee ff ff       	callq  400ef0 <__printf_chk@plt>
  40207c:	89 de                	mov    %ebx,%esi
  40207e:	bf 01 00 00 00       	mov    $0x1,%edi
  402083:	e8 7a fd ff ff       	callq  401e02 <notify_server>
  402088:	5b                   	pop    %rbx
  402089:	c3                   	retq   

000000000040208a <fail>:
  40208a:	48 83 ec 08          	sub    $0x8,%rsp
  40208e:	83 3d 73 31 20 00 00 	cmpl   $0x0,0x203173(%rip)        # 605208 <is_checker>
  402095:	74 0a                	je     4020a1 <fail+0x17>
  402097:	b8 00 00 00 00       	mov    $0x0,%eax
  40209c:	e8 da fc ff ff       	callq  401d7b <check_fail>
  4020a1:	89 fe                	mov    %edi,%esi
  4020a3:	bf 00 00 00 00       	mov    $0x0,%edi
  4020a8:	e8 55 fd ff ff       	callq  401e02 <notify_server>
  4020ad:	48 83 c4 08          	add    $0x8,%rsp
  4020b1:	c3                   	retq   

00000000004020b2 <bushandler>:
  4020b2:	48 83 ec 08          	sub    $0x8,%rsp
  4020b6:	83 3d 4b 31 20 00 00 	cmpl   $0x0,0x20314b(%rip)        # 605208 <is_checker>
  4020bd:	74 14                	je     4020d3 <bushandler+0x21>
  4020bf:	bf f1 38 40 00       	mov    $0x4038f1,%edi
  4020c4:	e8 f7 ec ff ff       	callq  400dc0 <puts@plt>
  4020c9:	b8 00 00 00 00       	mov    $0x0,%eax
  4020ce:	e8 a8 fc ff ff       	callq  401d7b <check_fail>
  4020d3:	bf 30 3a 40 00       	mov    $0x403a30,%edi
  4020d8:	e8 e3 ec ff ff       	callq  400dc0 <puts@plt>
  4020dd:	bf fb 38 40 00       	mov    $0x4038fb,%edi
  4020e2:	e8 d9 ec ff ff       	callq  400dc0 <puts@plt>
  4020e7:	be 00 00 00 00       	mov    $0x0,%esi
  4020ec:	bf 00 00 00 00       	mov    $0x0,%edi
  4020f1:	e8 0c fd ff ff       	callq  401e02 <notify_server>
  4020f6:	bf 01 00 00 00       	mov    $0x1,%edi
  4020fb:	e8 60 ee ff ff       	callq  400f60 <exit@plt>

0000000000402100 <seghandler>:
  402100:	48 83 ec 08          	sub    $0x8,%rsp
  402104:	83 3d fd 30 20 00 00 	cmpl   $0x0,0x2030fd(%rip)        # 605208 <is_checker>
  40210b:	74 14                	je     402121 <seghandler+0x21>
  40210d:	bf 11 39 40 00       	mov    $0x403911,%edi
  402112:	e8 a9 ec ff ff       	callq  400dc0 <puts@plt>
  402117:	b8 00 00 00 00       	mov    $0x0,%eax
  40211c:	e8 5a fc ff ff       	callq  401d7b <check_fail>
  402121:	bf 50 3a 40 00       	mov    $0x403a50,%edi
  402126:	e8 95 ec ff ff       	callq  400dc0 <puts@plt>
  40212b:	bf fb 38 40 00       	mov    $0x4038fb,%edi
  402130:	e8 8b ec ff ff       	callq  400dc0 <puts@plt>
  402135:	bf 01 00 00 00       	mov    $0x1,%edi
  40213a:	e8 21 ee ff ff       	callq  400f60 <exit@plt>

000000000040213f <illegalhandler>:
  40213f:	48 83 ec 08          	sub    $0x8,%rsp
  402143:	83 3d be 30 20 00 00 	cmpl   $0x0,0x2030be(%rip)        # 605208 <is_checker>
  40214a:	74 14                	je     402160 <illegalhandler+0x21>
  40214c:	bf 24 39 40 00       	mov    $0x403924,%edi
  402151:	e8 6a ec ff ff       	callq  400dc0 <puts@plt>
  402156:	b8 00 00 00 00       	mov    $0x0,%eax
  40215b:	e8 1b fc ff ff       	callq  401d7b <check_fail>
  402160:	bf 78 3a 40 00       	mov    $0x403a78,%edi
  402165:	e8 56 ec ff ff       	callq  400dc0 <puts@plt>
  40216a:	bf fb 38 40 00       	mov    $0x4038fb,%edi
  40216f:	e8 4c ec ff ff       	callq  400dc0 <puts@plt>
  402174:	be 00 00 00 00       	mov    $0x0,%esi
  402179:	bf 00 00 00 00       	mov    $0x0,%edi
  40217e:	e8 7f fc ff ff       	callq  401e02 <notify_server>
  402183:	bf 01 00 00 00       	mov    $0x1,%edi
  402188:	e8 d3 ed ff ff       	callq  400f60 <exit@plt>

000000000040218d <sigalrmhandler>:
  40218d:	48 83 ec 08          	sub    $0x8,%rsp
  402191:	83 3d 70 30 20 00 00 	cmpl   $0x0,0x203070(%rip)        # 605208 <is_checker>
  402198:	74 14                	je     4021ae <sigalrmhandler+0x21>
  40219a:	bf 38 39 40 00       	mov    $0x403938,%edi
  40219f:	e8 1c ec ff ff       	callq  400dc0 <puts@plt>
  4021a4:	b8 00 00 00 00       	mov    $0x0,%eax
  4021a9:	e8 cd fb ff ff       	callq  401d7b <check_fail>
  4021ae:	ba 05 00 00 00       	mov    $0x5,%edx
  4021b3:	be a8 3a 40 00       	mov    $0x403aa8,%esi
  4021b8:	bf 01 00 00 00       	mov    $0x1,%edi
  4021bd:	b8 00 00 00 00       	mov    $0x0,%eax
  4021c2:	e8 29 ed ff ff       	callq  400ef0 <__printf_chk@plt>
  4021c7:	be 00 00 00 00       	mov    $0x0,%esi
  4021cc:	bf 00 00 00 00       	mov    $0x0,%edi
  4021d1:	e8 2c fc ff ff       	callq  401e02 <notify_server>
  4021d6:	bf 01 00 00 00       	mov    $0x1,%edi
  4021db:	e8 80 ed ff ff       	callq  400f60 <exit@plt>

00000000004021e0 <launch>:
  4021e0:	55                   	push   %rbp
  4021e1:	48 89 e5             	mov    %rsp,%rbp
  4021e4:	48 83 ec 10          	sub    $0x10,%rsp
  4021e8:	48 89 fa             	mov    %rdi,%rdx
  4021eb:	64 48 8b 04 25 28 00 	mov    %fs:0x28,%rax
  4021f2:	00 00 
  4021f4:	48 89 45 f8          	mov    %rax,-0x8(%rbp)
  4021f8:	31 c0                	xor    %eax,%eax
  4021fa:	48 8d 47 1e          	lea    0x1e(%rdi),%rax
  4021fe:	48 83 e0 f0          	and    $0xfffffffffffffff0,%rax
  402202:	48 29 c4             	sub    %rax,%rsp
  402205:	48 8d 7c 24 0f       	lea    0xf(%rsp),%rdi
  40220a:	48 83 e7 f0          	and    $0xfffffffffffffff0,%rdi
  40220e:	be f4 00 00 00       	mov    $0xf4,%esi
  402213:	e8 e8 eb ff ff       	callq  400e00 <memset@plt>
  402218:	48 8b 05 81 2f 20 00 	mov    0x202f81(%rip),%rax        # 6051a0 <stdin@@GLIBC_2.2.5>
  40221f:	48 39 05 ca 2f 20 00 	cmp    %rax,0x202fca(%rip)        # 6051f0 <infile>
  402226:	75 14                	jne    40223c <launch+0x5c>
  402228:	be 40 39 40 00       	mov    $0x403940,%esi
  40222d:	bf 01 00 00 00       	mov    $0x1,%edi
  402232:	b8 00 00 00 00       	mov    $0x0,%eax
  402237:	e8 b4 ec ff ff       	callq  400ef0 <__printf_chk@plt>
  40223c:	c7 05 b6 2f 20 00 00 	movl   $0x0,0x202fb6(%rip)        # 6051fc <vlevel>
  402243:	00 00 00 
  402246:	b8 00 00 00 00       	mov    $0x0,%eax
  40224b:	e8 73 f9 ff ff       	callq  401bc3 <test>
  402250:	83 3d b1 2f 20 00 00 	cmpl   $0x0,0x202fb1(%rip)        # 605208 <is_checker>
  402257:	74 14                	je     40226d <launch+0x8d>
  402259:	bf 4d 39 40 00       	mov    $0x40394d,%edi
  40225e:	e8 5d eb ff ff       	callq  400dc0 <puts@plt>
  402263:	b8 00 00 00 00       	mov    $0x0,%eax
  402268:	e8 0e fb ff ff       	callq  401d7b <check_fail>
  40226d:	bf 58 39 40 00       	mov    $0x403958,%edi
  402272:	e8 49 eb ff ff       	callq  400dc0 <puts@plt>
  402277:	48 8b 45 f8          	mov    -0x8(%rbp),%rax
  40227b:	64 48 33 04 25 28 00 	xor    %fs:0x28,%rax
  402282:	00 00 
  402284:	74 05                	je     40228b <launch+0xab>
  402286:	e8 55 eb ff ff       	callq  400de0 <__stack_chk_fail@plt>
  40228b:	c9                   	leaveq 
  40228c:	c3                   	retq   

000000000040228d <stable_launch>:
  40228d:	53                   	push   %rbx
  40228e:	48 89 3d 53 2f 20 00 	mov    %rdi,0x202f53(%rip)        # 6051e8 <global_offset>
  402295:	41 b9 00 00 00 00    	mov    $0x0,%r9d
  40229b:	41 b8 00 00 00 00    	mov    $0x0,%r8d
  4022a1:	b9 32 01 00 00       	mov    $0x132,%ecx
  4022a6:	ba 07 00 00 00       	mov    $0x7,%edx
  4022ab:	be 00 00 10 00       	mov    $0x100000,%esi
  4022b0:	bf 00 60 58 55       	mov    $0x55586000,%edi
  4022b5:	e8 36 eb ff ff       	callq  400df0 <mmap@plt>
  4022ba:	48 89 c3             	mov    %rax,%rbx
  4022bd:	48 3d 00 60 58 55    	cmp    $0x55586000,%rax
  4022c3:	74 37                	je     4022fc <stable_launch+0x6f>
  4022c5:	be 00 00 10 00       	mov    $0x100000,%esi
  4022ca:	48 89 c7             	mov    %rax,%rdi
  4022cd:	e8 0e ec ff ff       	callq  400ee0 <munmap@plt>
  4022d2:	b9 00 60 58 55       	mov    $0x55586000,%ecx
  4022d7:	ba e0 3a 40 00       	mov    $0x403ae0,%edx
  4022dc:	be 01 00 00 00       	mov    $0x1,%esi
  4022e1:	48 8b 3d d8 2e 20 00 	mov    0x202ed8(%rip),%rdi        # 6051c0 <stderr@@GLIBC_2.2.5>
  4022e8:	b8 00 00 00 00       	mov    $0x0,%eax
  4022ed:	e8 8e ec ff ff       	callq  400f80 <__fprintf_chk@plt>
  4022f2:	bf 01 00 00 00       	mov    $0x1,%edi
  4022f7:	e8 64 ec ff ff       	callq  400f60 <exit@plt>
  4022fc:	48 8d 90 f8 ff 0f 00 	lea    0xffff8(%rax),%rdx
  402303:	48 89 15 7e 3e 20 00 	mov    %rdx,0x203e7e(%rip)        # 606188 <stack_top>
  40230a:	48 89 e0             	mov    %rsp,%rax
  40230d:	48 89 d4             	mov    %rdx,%rsp
  402310:	48 89 c2             	mov    %rax,%rdx
  402313:	48 89 15 c6 2e 20 00 	mov    %rdx,0x202ec6(%rip)        # 6051e0 <global_save_stack>
  40231a:	48 8b 3d c7 2e 20 00 	mov    0x202ec7(%rip),%rdi        # 6051e8 <global_offset>
  402321:	e8 ba fe ff ff       	callq  4021e0 <launch>
  402326:	48 8b 05 b3 2e 20 00 	mov    0x202eb3(%rip),%rax        # 6051e0 <global_save_stack>
  40232d:	48 89 c4             	mov    %rax,%rsp
  402330:	be 00 00 10 00       	mov    $0x100000,%esi
  402335:	48 89 df             	mov    %rbx,%rdi
  402338:	e8 a3 eb ff ff       	callq  400ee0 <munmap@plt>
  40233d:	5b                   	pop    %rbx
  40233e:	c3                   	retq   

000000000040233f <rio_readinitb>:
  40233f:	89 37                	mov    %esi,(%rdi)
  402341:	c7 47 04 00 00 00 00 	movl   $0x0,0x4(%rdi)
  402348:	48 8d 47 10          	lea    0x10(%rdi),%rax
  40234c:	48 89 47 08          	mov    %rax,0x8(%rdi)
  402350:	c3                   	retq   

0000000000402351 <sigalrm_handler>:
  402351:	48 83 ec 08          	sub    $0x8,%rsp
  402355:	b9 00 00 00 00       	mov    $0x0,%ecx
  40235a:	ba 20 3b 40 00       	mov    $0x403b20,%edx
  40235f:	be 01 00 00 00       	mov    $0x1,%esi
  402364:	48 8b 3d 55 2e 20 00 	mov    0x202e55(%rip),%rdi        # 6051c0 <stderr@@GLIBC_2.2.5>
  40236b:	b8 00 00 00 00       	mov    $0x0,%eax
  402370:	e8 0b ec ff ff       	callq  400f80 <__fprintf_chk@plt>
  402375:	bf 01 00 00 00       	mov    $0x1,%edi
  40237a:	e8 e1 eb ff ff       	callq  400f60 <exit@plt>

000000000040237f <rio_writen>:
  40237f:	41 55                	push   %r13
  402381:	41 54                	push   %r12
  402383:	55                   	push   %rbp
  402384:	53                   	push   %rbx
  402385:	48 83 ec 08          	sub    $0x8,%rsp
  402389:	41 89 fc             	mov    %edi,%r12d
  40238c:	48 89 f5             	mov    %rsi,%rbp
  40238f:	49 89 d5             	mov    %rdx,%r13
  402392:	48 89 d3             	mov    %rdx,%rbx
  402395:	eb 28                	jmp    4023bf <rio_writen+0x40>
  402397:	48 89 da             	mov    %rbx,%rdx
  40239a:	48 89 ee             	mov    %rbp,%rsi
  40239d:	44 89 e7             	mov    %r12d,%edi
  4023a0:	e8 2b ea ff ff       	callq  400dd0 <write@plt>
  4023a5:	48 85 c0             	test   %rax,%rax
  4023a8:	7f 0f                	jg     4023b9 <rio_writen+0x3a>
  4023aa:	e8 d1 e9 ff ff       	callq  400d80 <__errno_location@plt>
  4023af:	83 38 04             	cmpl   $0x4,(%rax)
  4023b2:	75 15                	jne    4023c9 <rio_writen+0x4a>
  4023b4:	b8 00 00 00 00       	mov    $0x0,%eax
  4023b9:	48 29 c3             	sub    %rax,%rbx
  4023bc:	48 01 c5             	add    %rax,%rbp
  4023bf:	48 85 db             	test   %rbx,%rbx
  4023c2:	75 d3                	jne    402397 <rio_writen+0x18>
  4023c4:	4c 89 e8             	mov    %r13,%rax
  4023c7:	eb 07                	jmp    4023d0 <rio_writen+0x51>
  4023c9:	48 c7 c0 ff ff ff ff 	mov    $0xffffffffffffffff,%rax
  4023d0:	48 83 c4 08          	add    $0x8,%rsp
  4023d4:	5b                   	pop    %rbx
  4023d5:	5d                   	pop    %rbp
  4023d6:	41 5c                	pop    %r12
  4023d8:	41 5d                	pop    %r13
  4023da:	c3                   	retq   

00000000004023db <rio_read>:
  4023db:	41 55                	push   %r13
  4023dd:	41 54                	push   %r12
  4023df:	55                   	push   %rbp
  4023e0:	53                   	push   %rbx
  4023e1:	48 83 ec 08          	sub    $0x8,%rsp
  4023e5:	48 89 fb             	mov    %rdi,%rbx
  4023e8:	49 89 f5             	mov    %rsi,%r13
  4023eb:	49 89 d4             	mov    %rdx,%r12
  4023ee:	eb 2e                	jmp    40241e <rio_read+0x43>
  4023f0:	48 8d 6b 10          	lea    0x10(%rbx),%rbp
  4023f4:	8b 3b                	mov    (%rbx),%edi
  4023f6:	ba 00 20 00 00       	mov    $0x2000,%edx
  4023fb:	48 89 ee             	mov    %rbp,%rsi
  4023fe:	e8 2d ea ff ff       	callq  400e30 <read@plt>
  402403:	89 43 04             	mov    %eax,0x4(%rbx)
  402406:	85 c0                	test   %eax,%eax
  402408:	79 0c                	jns    402416 <rio_read+0x3b>
  40240a:	e8 71 e9 ff ff       	callq  400d80 <__errno_location@plt>
  40240f:	83 38 04             	cmpl   $0x4,(%rax)
  402412:	74 0a                	je     40241e <rio_read+0x43>
  402414:	eb 37                	jmp    40244d <rio_read+0x72>
  402416:	85 c0                	test   %eax,%eax
  402418:	74 3c                	je     402456 <rio_read+0x7b>
  40241a:	48 89 6b 08          	mov    %rbp,0x8(%rbx)
  40241e:	8b 6b 04             	mov    0x4(%rbx),%ebp
  402421:	85 ed                	test   %ebp,%ebp
  402423:	7e cb                	jle    4023f0 <rio_read+0x15>
  402425:	89 e8                	mov    %ebp,%eax
  402427:	49 39 c4             	cmp    %rax,%r12
  40242a:	77 03                	ja     40242f <rio_read+0x54>
  40242c:	44 89 e5             	mov    %r12d,%ebp
  40242f:	4c 63 e5             	movslq %ebp,%r12
  402432:	48 8b 73 08          	mov    0x8(%rbx),%rsi
  402436:	4c 89 e2             	mov    %r12,%rdx
  402439:	4c 89 ef             	mov    %r13,%rdi
  40243c:	e8 4f ea ff ff       	callq  400e90 <memcpy@plt>
  402441:	4c 01 63 08          	add    %r12,0x8(%rbx)
  402445:	29 6b 04             	sub    %ebp,0x4(%rbx)
  402448:	4c 89 e0             	mov    %r12,%rax
  40244b:	eb 0e                	jmp    40245b <rio_read+0x80>
  40244d:	48 c7 c0 ff ff ff ff 	mov    $0xffffffffffffffff,%rax
  402454:	eb 05                	jmp    40245b <rio_read+0x80>
  402456:	b8 00 00 00 00       	mov    $0x0,%eax
  40245b:	48 83 c4 08          	add    $0x8,%rsp
  40245f:	5b                   	pop    %rbx
  402460:	5d                   	pop    %rbp
  402461:	41 5c                	pop    %r12
  402463:	41 5d                	pop    %r13
  402465:	c3                   	retq   

0000000000402466 <rio_readlineb>:
  402466:	41 55                	push   %r13
  402468:	41 54                	push   %r12
  40246a:	55                   	push   %rbp
  40246b:	53                   	push   %rbx
  40246c:	48 83 ec 18          	sub    $0x18,%rsp
  402470:	49 89 fd             	mov    %rdi,%r13
  402473:	48 89 f5             	mov    %rsi,%rbp
  402476:	49 89 d4             	mov    %rdx,%r12
  402479:	64 48 8b 04 25 28 00 	mov    %fs:0x28,%rax
  402480:	00 00 
  402482:	48 89 44 24 08       	mov    %rax,0x8(%rsp)
  402487:	31 c0                	xor    %eax,%eax
  402489:	bb 01 00 00 00       	mov    $0x1,%ebx
  40248e:	eb 3f                	jmp    4024cf <rio_readlineb+0x69>
  402490:	ba 01 00 00 00       	mov    $0x1,%edx
  402495:	48 8d 74 24 07       	lea    0x7(%rsp),%rsi
  40249a:	4c 89 ef             	mov    %r13,%rdi
  40249d:	e8 39 ff ff ff       	callq  4023db <rio_read>
  4024a2:	83 f8 01             	cmp    $0x1,%eax
  4024a5:	75 15                	jne    4024bc <rio_readlineb+0x56>
  4024a7:	48 8d 45 01          	lea    0x1(%rbp),%rax
  4024ab:	0f b6 54 24 07       	movzbl 0x7(%rsp),%edx
  4024b0:	88 55 00             	mov    %dl,0x0(%rbp)
  4024b3:	80 7c 24 07 0a       	cmpb   $0xa,0x7(%rsp)
  4024b8:	75 0e                	jne    4024c8 <rio_readlineb+0x62>
  4024ba:	eb 1a                	jmp    4024d6 <rio_readlineb+0x70>
  4024bc:	85 c0                	test   %eax,%eax
  4024be:	75 22                	jne    4024e2 <rio_readlineb+0x7c>
  4024c0:	48 83 fb 01          	cmp    $0x1,%rbx
  4024c4:	75 13                	jne    4024d9 <rio_readlineb+0x73>
  4024c6:	eb 23                	jmp    4024eb <rio_readlineb+0x85>
  4024c8:	48 83 c3 01          	add    $0x1,%rbx
  4024cc:	48 89 c5             	mov    %rax,%rbp
  4024cf:	4c 39 e3             	cmp    %r12,%rbx
  4024d2:	72 bc                	jb     402490 <rio_readlineb+0x2a>
  4024d4:	eb 03                	jmp    4024d9 <rio_readlineb+0x73>
  4024d6:	48 89 c5             	mov    %rax,%rbp
  4024d9:	c6 45 00 00          	movb   $0x0,0x0(%rbp)
  4024dd:	48 89 d8             	mov    %rbx,%rax
  4024e0:	eb 0e                	jmp    4024f0 <rio_readlineb+0x8a>
  4024e2:	48 c7 c0 ff ff ff ff 	mov    $0xffffffffffffffff,%rax
  4024e9:	eb 05                	jmp    4024f0 <rio_readlineb+0x8a>
  4024eb:	b8 00 00 00 00       	mov    $0x0,%eax
  4024f0:	48 8b 4c 24 08       	mov    0x8(%rsp),%rcx
  4024f5:	64 48 33 0c 25 28 00 	xor    %fs:0x28,%rcx
  4024fc:	00 00 
  4024fe:	74 05                	je     402505 <rio_readlineb+0x9f>
  402500:	e8 db e8 ff ff       	callq  400de0 <__stack_chk_fail@plt>
  402505:	48 83 c4 18          	add    $0x18,%rsp
  402509:	5b                   	pop    %rbx
  40250a:	5d                   	pop    %rbp
  40250b:	41 5c                	pop    %r12
  40250d:	41 5d                	pop    %r13
  40250f:	c3                   	retq   

0000000000402510 <urlencode>:
  402510:	41 54                	push   %r12
  402512:	55                   	push   %rbp
  402513:	53                   	push   %rbx
  402514:	48 83 ec 10          	sub    $0x10,%rsp
  402518:	48 89 fb             	mov    %rdi,%rbx
  40251b:	48 89 f5             	mov    %rsi,%rbp
  40251e:	64 48 8b 04 25 28 00 	mov    %fs:0x28,%rax
  402525:	00 00 
  402527:	48 89 44 24 08       	mov    %rax,0x8(%rsp)
  40252c:	31 c0                	xor    %eax,%eax
  40252e:	48 c7 c1 ff ff ff ff 	mov    $0xffffffffffffffff,%rcx
  402535:	f2 ae                	repnz scas %es:(%rdi),%al
  402537:	48 f7 d1             	not    %rcx
  40253a:	8d 41 ff             	lea    -0x1(%rcx),%eax
  40253d:	e9 aa 00 00 00       	jmpq   4025ec <urlencode+0xdc>
  402542:	44 0f b6 03          	movzbl (%rbx),%r8d
  402546:	41 80 f8 2a          	cmp    $0x2a,%r8b
  40254a:	0f 94 c2             	sete   %dl
  40254d:	41 80 f8 2d          	cmp    $0x2d,%r8b
  402551:	0f 94 c0             	sete   %al
  402554:	08 c2                	or     %al,%dl
  402556:	75 24                	jne    40257c <urlencode+0x6c>
  402558:	41 80 f8 2e          	cmp    $0x2e,%r8b
  40255c:	74 1e                	je     40257c <urlencode+0x6c>
  40255e:	41 80 f8 5f          	cmp    $0x5f,%r8b
  402562:	74 18                	je     40257c <urlencode+0x6c>
  402564:	41 8d 40 d0          	lea    -0x30(%r8),%eax
  402568:	3c 09                	cmp    $0x9,%al
  40256a:	76 10                	jbe    40257c <urlencode+0x6c>
  40256c:	41 8d 40 bf          	lea    -0x41(%r8),%eax
  402570:	3c 19                	cmp    $0x19,%al
  402572:	76 08                	jbe    40257c <urlencode+0x6c>
  402574:	41 8d 40 9f          	lea    -0x61(%r8),%eax
  402578:	3c 19                	cmp    $0x19,%al
  40257a:	77 0a                	ja     402586 <urlencode+0x76>
  40257c:	44 88 45 00          	mov    %r8b,0x0(%rbp)
  402580:	48 8d 6d 01          	lea    0x1(%rbp),%rbp
  402584:	eb 5f                	jmp    4025e5 <urlencode+0xd5>
  402586:	41 80 f8 20          	cmp    $0x20,%r8b
  40258a:	75 0a                	jne    402596 <urlencode+0x86>
  40258c:	c6 45 00 2b          	movb   $0x2b,0x0(%rbp)
  402590:	48 8d 6d 01          	lea    0x1(%rbp),%rbp
  402594:	eb 4f                	jmp    4025e5 <urlencode+0xd5>
  402596:	41 8d 40 e0          	lea    -0x20(%r8),%eax
  40259a:	3c 5f                	cmp    $0x5f,%al
  40259c:	0f 96 c2             	setbe  %dl
  40259f:	41 80 f8 09          	cmp    $0x9,%r8b
  4025a3:	0f 94 c0             	sete   %al
  4025a6:	08 c2                	or     %al,%dl
  4025a8:	74 50                	je     4025fa <urlencode+0xea>
  4025aa:	45 0f b6 c0          	movzbl %r8b,%r8d
  4025ae:	b9 d0 3b 40 00       	mov    $0x403bd0,%ecx
  4025b3:	ba 08 00 00 00       	mov    $0x8,%edx
  4025b8:	be 01 00 00 00       	mov    $0x1,%esi
  4025bd:	48 89 e7             	mov    %rsp,%rdi
  4025c0:	b8 00 00 00 00       	mov    $0x0,%eax
  4025c5:	e8 d6 e9 ff ff       	callq  400fa0 <__sprintf_chk@plt>
  4025ca:	0f b6 04 24          	movzbl (%rsp),%eax
  4025ce:	88 45 00             	mov    %al,0x0(%rbp)
  4025d1:	0f b6 44 24 01       	movzbl 0x1(%rsp),%eax
  4025d6:	88 45 01             	mov    %al,0x1(%rbp)
  4025d9:	0f b6 44 24 02       	movzbl 0x2(%rsp),%eax
  4025de:	88 45 02             	mov    %al,0x2(%rbp)
  4025e1:	48 8d 6d 03          	lea    0x3(%rbp),%rbp
  4025e5:	48 83 c3 01          	add    $0x1,%rbx
  4025e9:	44 89 e0             	mov    %r12d,%eax
  4025ec:	44 8d 60 ff          	lea    -0x1(%rax),%r12d
  4025f0:	85 c0                	test   %eax,%eax
  4025f2:	0f 85 4a ff ff ff    	jne    402542 <urlencode+0x32>
  4025f8:	eb 05                	jmp    4025ff <urlencode+0xef>
  4025fa:	b8 ff ff ff ff       	mov    $0xffffffff,%eax
  4025ff:	48 8b 74 24 08       	mov    0x8(%rsp),%rsi
  402604:	64 48 33 34 25 28 00 	xor    %fs:0x28,%rsi
  40260b:	00 00 
  40260d:	74 05                	je     402614 <urlencode+0x104>
  40260f:	e8 cc e7 ff ff       	callq  400de0 <__stack_chk_fail@plt>
  402614:	48 83 c4 10          	add    $0x10,%rsp
  402618:	5b                   	pop    %rbx
  402619:	5d                   	pop    %rbp
  40261a:	41 5c                	pop    %r12
  40261c:	c3                   	retq   

000000000040261d <jsonencode>:
  40261d:	41 57                	push   %r15
  40261f:	41 56                	push   %r14
  402621:	41 55                	push   %r13
  402623:	41 54                	push   %r12
  402625:	55                   	push   %rbp
  402626:	53                   	push   %rbx
  402627:	48 81 ec 08 04 00 00 	sub    $0x408,%rsp
  40262e:	49 89 fe             	mov    %rdi,%r14
  402631:	48 89 f3             	mov    %rsi,%rbx
  402634:	49 89 d5             	mov    %rdx,%r13
  402637:	64 48 8b 04 25 28 00 	mov    %fs:0x28,%rax
  40263e:	00 00 
  402640:	48 89 84 24 f8 03 00 	mov    %rax,0x3f8(%rsp)
  402647:	00 
  402648:	31 c0                	xor    %eax,%eax
  40264a:	be 69 38 40 00       	mov    $0x403869,%esi
  40264f:	48 89 df             	mov    %rbx,%rdi
  402652:	e8 39 e9 ff ff       	callq  400f90 <strstr@plt>
  402657:	48 85 c0             	test   %rax,%rax
  40265a:	75 08                	jne    402664 <jsonencode+0x47>
  40265c:	41 bf 00 00 00 00    	mov    $0x0,%r15d
  402662:	eb 06                	jmp    40266a <jsonencode+0x4d>
  402664:	41 bf 01 00 00 00    	mov    $0x1,%r15d
  40266a:	48 89 e7             	mov    %rsp,%rdi
  40266d:	b9 3e 00 00 00       	mov    $0x3e,%ecx
  402672:	b8 00 00 00 00       	mov    $0x0,%eax
  402677:	f3 48 ab             	rep stos %rax,%es:(%rdi)
  40267a:	c7 07 00 00 00 00    	movl   $0x0,(%rdi)
  402680:	48 c7 c1 ff ff ff ff 	mov    $0xffffffffffffffff,%rcx
  402687:	48 89 df             	mov    %rbx,%rdi
  40268a:	f2 ae                	repnz scas %es:(%rdi),%al
  40268c:	48 f7 d1             	not    %rcx
  40268f:	8d 71 ff             	lea    -0x1(%rcx),%esi
  402692:	b8 00 00 00 00       	mov    $0x0,%eax
  402697:	bd 00 00 00 00       	mov    $0x0,%ebp
  40269c:	b9 00 00 00 00       	mov    $0x0,%ecx
  4026a1:	eb 2c                	jmp    4026cf <jsonencode+0xb2>
  4026a3:	48 63 d0             	movslq %eax,%rdx
  4026a6:	0f b6 14 13          	movzbl (%rbx,%rdx,1),%edx
  4026aa:	80 fa 3a             	cmp    $0x3a,%dl
  4026ad:	75 05                	jne    4026b4 <jsonencode+0x97>
  4026af:	83 c1 01             	add    $0x1,%ecx
  4026b2:	eb 18                	jmp    4026cc <jsonencode+0xaf>
  4026b4:	83 f9 04             	cmp    $0x4,%ecx
  4026b7:	75 05                	jne    4026be <jsonencode+0xa1>
  4026b9:	41 89 d4             	mov    %edx,%r12d
  4026bc:	eb 0e                	jmp    4026cc <jsonencode+0xaf>
  4026be:	83 f9 05             	cmp    $0x5,%ecx
  4026c1:	75 09                	jne    4026cc <jsonencode+0xaf>
  4026c3:	48 63 fd             	movslq %ebp,%rdi
  4026c6:	88 14 3c             	mov    %dl,(%rsp,%rdi,1)
  4026c9:	83 c5 01             	add    $0x1,%ebp
  4026cc:	83 c0 01             	add    $0x1,%eax
  4026cf:	39 f0                	cmp    %esi,%eax
  4026d1:	7c d0                	jl     4026a3 <jsonencode+0x86>
  4026d3:	be d7 3b 40 00       	mov    $0x403bd7,%esi
  4026d8:	48 89 df             	mov    %rbx,%rdi
  4026db:	e8 b0 e8 ff ff       	callq  400f90 <strstr@plt>
  4026e0:	48 85 c0             	test   %rax,%rax
  4026e3:	75 2d                	jne    402712 <jsonencode+0xf5>
  4026e5:	41 8d 44 24 d0       	lea    -0x30(%r12),%eax
  4026ea:	3c 01                	cmp    $0x1,%al
  4026ec:	76 0e                	jbe    4026fc <jsonencode+0xdf>
  4026ee:	41 80 fc 32          	cmp    $0x32,%r12b
  4026f2:	74 10                	je     402704 <jsonencode+0xe7>
  4026f4:	41 80 fc 33          	cmp    $0x33,%r12b
  4026f8:	75 18                	jne    402712 <jsonencode+0xf5>
  4026fa:	eb 10                	jmp    40270c <jsonencode+0xef>
  4026fc:	41 bc 36 00 00 00    	mov    $0x36,%r12d
  402702:	eb 0e                	jmp    402712 <jsonencode+0xf5>
  402704:	41 bc 34 00 00 00    	mov    $0x34,%r12d
  40270a:	eb 06                	jmp    402712 <jsonencode+0xf5>
  40270c:	41 bc 35 00 00 00    	mov    $0x35,%r12d
  402712:	48 63 ed             	movslq %ebp,%rbp
  402715:	c6 04 2c 00          	movb   $0x0,(%rsp,%rbp,1)
  402719:	45 0f be e4          	movsbl %r12b,%r12d
  40271d:	41 83 ec 30          	sub    $0x30,%r12d
  402721:	48 c7 84 24 00 02 00 	movq   $0x0,0x200(%rsp)
  402728:	00 00 00 00 00 
  40272d:	48 8d bc 24 08 02 00 	lea    0x208(%rsp),%rdi
  402734:	00 
  402735:	b9 3d 00 00 00       	mov    $0x3d,%ecx
  40273a:	b8 00 00 00 00       	mov    $0x0,%eax
  40273f:	f3 48 ab             	rep stos %rax,%es:(%rdi)
  402742:	c7 07 00 00 00 00    	movl   $0x0,(%rdi)
  402748:	48 8d 9c 24 00 02 00 	lea    0x200(%rsp),%rbx
  40274f:	00 
  402750:	48 89 de             	mov    %rbx,%rsi
  402753:	48 89 e7             	mov    %rsp,%rdi
  402756:	e8 b5 fd ff ff       	callq  402510 <urlencode>
  40275b:	53                   	push   %rbx
  40275c:	41 57                	push   %r15
  40275e:	45 89 e1             	mov    %r12d,%r9d
  402761:	4d 89 f0             	mov    %r14,%r8
  402764:	b9 48 3b 40 00       	mov    $0x403b48,%ecx
  402769:	48 c7 c2 ff ff ff ff 	mov    $0xffffffffffffffff,%rdx
  402770:	be 01 00 00 00       	mov    $0x1,%esi
  402775:	4c 89 ef             	mov    %r13,%rdi
  402778:	b8 00 00 00 00       	mov    $0x0,%eax
  40277d:	e8 1e e8 ff ff       	callq  400fa0 <__sprintf_chk@plt>
  402782:	48 83 c4 10          	add    $0x10,%rsp
  402786:	b8 00 00 00 00       	mov    $0x0,%eax
  40278b:	48 8b b4 24 f8 03 00 	mov    0x3f8(%rsp),%rsi
  402792:	00 
  402793:	64 48 33 34 25 28 00 	xor    %fs:0x28,%rsi
  40279a:	00 00 
  40279c:	74 05                	je     4027a3 <jsonencode+0x186>
  40279e:	e8 3d e6 ff ff       	callq  400de0 <__stack_chk_fail@plt>
  4027a3:	48 81 c4 08 04 00 00 	add    $0x408,%rsp
  4027aa:	5b                   	pop    %rbx
  4027ab:	5d                   	pop    %rbp
  4027ac:	41 5c                	pop    %r12
  4027ae:	41 5d                	pop    %r13
  4027b0:	41 5e                	pop    %r14
  4027b2:	41 5f                	pop    %r15
  4027b4:	c3                   	retq   

00000000004027b5 <thingy>:
  4027b5:	55                   	push   %rbp
  4027b6:	53                   	push   %rbx
  4027b7:	48 81 ec 48 02 00 00 	sub    $0x248,%rsp
  4027be:	49 89 f8             	mov    %rdi,%r8
  4027c1:	48 89 d5             	mov    %rdx,%rbp
  4027c4:	64 48 8b 04 25 28 00 	mov    %fs:0x28,%rax
  4027cb:	00 00 
  4027cd:	48 89 84 24 38 02 00 	mov    %rax,0x238(%rsp)
  4027d4:	00 
  4027d5:	31 c0                	xor    %eax,%eax
  4027d7:	48 8d 54 24 40       	lea    0x40(%rsp),%rdx
  4027dc:	48 89 d7             	mov    %rdx,%rdi
  4027df:	b9 3e 00 00 00       	mov    $0x3e,%ecx
  4027e4:	f3 48 ab             	rep stos %rax,%es:(%rdi)
  4027e7:	c7 07 00 00 00 00    	movl   $0x0,(%rdi)
  4027ed:	48 c7 c1 ff ff ff ff 	mov    $0xffffffffffffffff,%rcx
  4027f4:	4c 89 c7             	mov    %r8,%rdi
  4027f7:	f2 ae                	repnz scas %es:(%rdi),%al
  4027f9:	48 89 c8             	mov    %rcx,%rax
  4027fc:	48 f7 d0             	not    %rax
  4027ff:	8d 78 ff             	lea    -0x1(%rax),%edi
  402802:	b8 00 00 00 00       	mov    $0x0,%eax
  402807:	41 b9 00 00 00 00    	mov    $0x0,%r9d
  40280d:	b9 00 00 00 00       	mov    $0x0,%ecx
  402812:	eb 26                	jmp    40283a <thingy+0x85>
  402814:	48 63 d0             	movslq %eax,%rdx
  402817:	41 0f b6 14 10       	movzbl (%r8,%rdx,1),%edx
  40281c:	80 fa 3a             	cmp    $0x3a,%dl
  40281f:	75 05                	jne    402826 <thingy+0x71>
  402821:	83 c1 01             	add    $0x1,%ecx
  402824:	eb 11                	jmp    402837 <thingy+0x82>
  402826:	83 f9 05             	cmp    $0x5,%ecx
  402829:	75 0c                	jne    402837 <thingy+0x82>
  40282b:	4d 63 d1             	movslq %r9d,%r10
  40282e:	42 88 54 14 40       	mov    %dl,0x40(%rsp,%r10,1)
  402833:	41 83 c1 01          	add    $0x1,%r9d
  402837:	83 c0 01             	add    $0x1,%eax
  40283a:	39 f8                	cmp    %edi,%eax
  40283c:	7c d6                	jl     402814 <thingy+0x5f>
  40283e:	4d 63 c9             	movslq %r9d,%r9
  402841:	42 c6 44 0c 40 00    	movb   $0x0,0x40(%rsp,%r9,1)
  402847:	48 8d 7c 24 40       	lea    0x40(%rsp),%rdi
  40284c:	b8 00 00 00 00       	mov    $0x0,%eax
  402851:	48 c7 c1 ff ff ff ff 	mov    $0xffffffffffffffff,%rcx
  402858:	f2 ae                	repnz scas %es:(%rdi),%al
  40285a:	48 89 c8             	mov    %rcx,%rax
  40285d:	48 f7 d0             	not    %rax
  402860:	8d 48 ff             	lea    -0x1(%rax),%ecx
  402863:	ba 00 00 00 00       	mov    $0x0,%edx
  402868:	bb 00 00 00 00       	mov    $0x0,%ebx
  40286d:	eb 47                	jmp    4028b6 <thingy+0x101>
  40286f:	48 63 c2             	movslq %edx,%rax
  402872:	0f b6 44 04 40       	movzbl 0x40(%rsp,%rax,1),%eax
  402877:	83 e8 31             	sub    $0x31,%eax
  40287a:	3c 08                	cmp    $0x8,%al
  40287c:	77 35                	ja     4028b3 <thingy+0xfe>
  40287e:	0f b6 c0             	movzbl %al,%eax
  402881:	ff 24 c5 40 3c 40 00 	jmpq   *0x403c40(,%rax,8)
  402888:	83 c3 01             	add    $0x1,%ebx
  40288b:	eb 26                	jmp    4028b3 <thingy+0xfe>
  40288d:	83 c3 02             	add    $0x2,%ebx
  402890:	eb 21                	jmp    4028b3 <thingy+0xfe>
  402892:	83 c3 03             	add    $0x3,%ebx
  402895:	eb 1c                	jmp    4028b3 <thingy+0xfe>
  402897:	83 c3 04             	add    $0x4,%ebx
  40289a:	eb 17                	jmp    4028b3 <thingy+0xfe>
  40289c:	83 c3 05             	add    $0x5,%ebx
  40289f:	eb 12                	jmp    4028b3 <thingy+0xfe>
  4028a1:	83 c3 06             	add    $0x6,%ebx
  4028a4:	eb 0d                	jmp    4028b3 <thingy+0xfe>
  4028a6:	83 c3 07             	add    $0x7,%ebx
  4028a9:	eb 08                	jmp    4028b3 <thingy+0xfe>
  4028ab:	83 c3 08             	add    $0x8,%ebx
  4028ae:	eb 03                	jmp    4028b3 <thingy+0xfe>
  4028b0:	83 c3 09             	add    $0x9,%ebx
  4028b3:	83 c2 01             	add    $0x1,%edx
  4028b6:	39 ca                	cmp    %ecx,%edx
  4028b8:	7c b5                	jl     40286f <thingy+0xba>
  4028ba:	b8 00 00 00 00       	mov    $0x0,%eax
  4028bf:	48 c7 c1 ff ff ff ff 	mov    $0xffffffffffffffff,%rcx
  4028c6:	48 89 f7             	mov    %rsi,%rdi
  4028c9:	f2 ae                	repnz scas %es:(%rdi),%al
  4028cb:	48 89 c8             	mov    %rcx,%rax
  4028ce:	48 f7 d0             	not    %rax
  4028d1:	8d 48 ff             	lea    -0x1(%rax),%ecx
  4028d4:	ba 00 00 00 00       	mov    $0x0,%edx
  4028d9:	eb 46                	jmp    402921 <thingy+0x16c>
  4028db:	48 63 c2             	movslq %edx,%rax
  4028de:	0f b6 04 06          	movzbl (%rsi,%rax,1),%eax
  4028e2:	83 e8 31             	sub    $0x31,%eax
  4028e5:	3c 08                	cmp    $0x8,%al
  4028e7:	77 35                	ja     40291e <thingy+0x169>
  4028e9:	0f b6 c0             	movzbl %al,%eax
  4028ec:	ff 24 c5 88 3c 40 00 	jmpq   *0x403c88(,%rax,8)
  4028f3:	83 c3 01             	add    $0x1,%ebx
  4028f6:	eb 26                	jmp    40291e <thingy+0x169>
  4028f8:	83 c3 02             	add    $0x2,%ebx
  4028fb:	eb 21                	jmp    40291e <thingy+0x169>
  4028fd:	83 c3 03             	add    $0x3,%ebx
  402900:	eb 1c                	jmp    40291e <thingy+0x169>
  402902:	83 c3 04             	add    $0x4,%ebx
  402905:	eb 17                	jmp    40291e <thingy+0x169>
  402907:	83 c3 05             	add    $0x5,%ebx
  40290a:	eb 12                	jmp    40291e <thingy+0x169>
  40290c:	83 c3 06             	add    $0x6,%ebx
  40290f:	eb 0d                	jmp    40291e <thingy+0x169>
  402911:	83 c3 07             	add    $0x7,%ebx
  402914:	eb 08                	jmp    40291e <thingy+0x169>
  402916:	83 c3 08             	add    $0x8,%ebx
  402919:	eb 03                	jmp    40291e <thingy+0x169>
  40291b:	83 c3 09             	add    $0x9,%ebx
  40291e:	83 c2 01             	add    $0x1,%edx
  402921:	39 ca                	cmp    %ecx,%edx
  402923:	7c b6                	jl     4028db <thingy+0x126>
  402925:	ba 32 00 00 00       	mov    $0x32,%edx
  40292a:	be e1 3b 40 00       	mov    $0x403be1,%esi
  40292f:	48 89 e7             	mov    %rsp,%rdi
  402932:	e8 29 e4 ff ff       	callq  400d60 <__strcat_chk@plt>
  402937:	41 89 d8             	mov    %ebx,%r8d
  40293a:	b9 f0 3b 40 00       	mov    $0x403bf0,%ecx
  40293f:	ba 32 00 00 00       	mov    $0x32,%edx
  402944:	be 01 00 00 00       	mov    $0x1,%esi
  402949:	48 89 e7             	mov    %rsp,%rdi
  40294c:	b8 00 00 00 00       	mov    $0x0,%eax
  402951:	e8 4a e6 ff ff       	callq  400fa0 <__sprintf_chk@plt>
  402956:	48 89 e6             	mov    %rsp,%rsi
  402959:	48 89 ef             	mov    %rbp,%rdi
  40295c:	e8 2f e6 ff ff       	callq  400f90 <strstr@plt>
  402961:	48 85 c0             	test   %rax,%rax
  402964:	74 07                	je     40296d <thingy+0x1b8>
  402966:	b8 01 00 00 00       	mov    $0x1,%eax
  40296b:	eb 05                	jmp    402972 <thingy+0x1bd>
  40296d:	b8 00 00 00 00       	mov    $0x0,%eax
  402972:	48 8b b4 24 38 02 00 	mov    0x238(%rsp),%rsi
  402979:	00 
  40297a:	64 48 33 34 25 28 00 	xor    %fs:0x28,%rsi
  402981:	00 00 
  402983:	74 05                	je     40298a <thingy+0x1d5>
  402985:	e8 56 e4 ff ff       	callq  400de0 <__stack_chk_fail@plt>
  40298a:	48 81 c4 48 02 00 00 	add    $0x248,%rsp
  402991:	5b                   	pop    %rbx
  402992:	5d                   	pop    %rbp
  402993:	c3                   	retq   

0000000000402994 <readServerStatus>:
  402994:	41 55                	push   %r13
  402996:	41 54                	push   %r12
  402998:	55                   	push   %rbp
  402999:	53                   	push   %rbx
  40299a:	48 83 ec 08          	sub    $0x8,%rsp
  40299e:	49 89 f4             	mov    %rsi,%r12
  4029a1:	49 89 d5             	mov    %rdx,%r13
  4029a4:	48 89 cd             	mov    %rcx,%rbp
  4029a7:	48 8d 5f 10          	lea    0x10(%rdi),%rbx
  4029ab:	be f3 3b 40 00       	mov    $0x403bf3,%esi
  4029b0:	48 89 df             	mov    %rbx,%rdi
  4029b3:	e8 d8 e5 ff ff       	callq  400f90 <strstr@plt>
  4029b8:	48 85 c0             	test   %rax,%rax
  4029bb:	74 26                	je     4029e3 <readServerStatus+0x4f>
  4029bd:	48 89 da             	mov    %rbx,%rdx
  4029c0:	4c 89 ee             	mov    %r13,%rsi
  4029c3:	48 89 ef             	mov    %rbp,%rdi
  4029c6:	e8 ea fd ff ff       	callq  4027b5 <thingy>
  4029cb:	85 c0                	test   %eax,%eax
  4029cd:	74 19                	je     4029e8 <readServerStatus+0x54>
  4029cf:	66 41 c7 04 24 4f 4b 	movw   $0x4b4f,(%r12)
  4029d6:	41 c6 44 24 02 00    	movb   $0x0,0x2(%r12)
  4029dc:	b8 01 00 00 00       	mov    $0x1,%eax
  4029e1:	eb 05                	jmp    4029e8 <readServerStatus+0x54>
  4029e3:	b8 00 00 00 00       	mov    $0x0,%eax
  4029e8:	48 83 c4 08          	add    $0x8,%rsp
  4029ec:	5b                   	pop    %rbx
  4029ed:	5d                   	pop    %rbp
  4029ee:	41 5c                	pop    %r12
  4029f0:	41 5d                	pop    %r13
  4029f2:	c3                   	retq   

00000000004029f3 <submitr>:
  4029f3:	41 57                	push   %r15
  4029f5:	41 56                	push   %r14
  4029f7:	41 55                	push   %r13
  4029f9:	41 54                	push   %r12
  4029fb:	55                   	push   %rbp
  4029fc:	53                   	push   %rbx
  4029fd:	48 81 ec 68 a0 00 00 	sub    $0xa068,%rsp
  402a04:	49 89 ff             	mov    %rdi,%r15
  402a07:	89 f5                	mov    %esi,%ebp
  402a09:	48 89 54 24 08       	mov    %rdx,0x8(%rsp)
  402a0e:	4d 89 c6             	mov    %r8,%r14
  402a11:	4d 89 cd             	mov    %r9,%r13
  402a14:	48 8b 9c 24 a0 a0 00 	mov    0xa0a0(%rsp),%rbx
  402a1b:	00 
  402a1c:	64 48 8b 04 25 28 00 	mov    %fs:0x28,%rax
  402a23:	00 00 
  402a25:	48 89 84 24 58 a0 00 	mov    %rax,0xa058(%rsp)
  402a2c:	00 
  402a2d:	31 c0                	xor    %eax,%eax
  402a2f:	49 89 c8             	mov    %rcx,%r8
  402a32:	b9 51 37 40 00       	mov    $0x403751,%ecx
  402a37:	ba 0b 00 00 00       	mov    $0xb,%edx
  402a3c:	be 01 00 00 00       	mov    $0x1,%esi
  402a41:	48 8d bc 24 40 20 00 	lea    0x2040(%rsp),%rdi
  402a48:	00 
  402a49:	e8 52 e5 ff ff       	callq  400fa0 <__sprintf_chk@plt>
  402a4e:	c7 44 24 1c 00 00 00 	movl   $0x0,0x1c(%rsp)
  402a55:	00 
  402a56:	ba 00 00 00 00       	mov    $0x0,%edx
  402a5b:	be 01 00 00 00       	mov    $0x1,%esi
  402a60:	bf 02 00 00 00       	mov    $0x2,%edi
  402a65:	e8 46 e5 ff ff       	callq  400fb0 <socket@plt>
  402a6a:	85 c0                	test   %eax,%eax
  402a6c:	79 4e                	jns    402abc <submitr+0xc9>
  402a6e:	48 b8 45 72 72 6f 72 	movabs $0x43203a726f727245,%rax
  402a75:	3a 20 43 
  402a78:	48 89 03             	mov    %rax,(%rbx)
  402a7b:	48 b8 6c 69 65 6e 74 	movabs $0x6e7520746e65696c,%rax
  402a82:	20 75 6e 
  402a85:	48 89 43 08          	mov    %rax,0x8(%rbx)
  402a89:	48 b8 61 62 6c 65 20 	movabs $0x206f7420656c6261,%rax
  402a90:	74 6f 20 
  402a93:	48 89 43 10          	mov    %rax,0x10(%rbx)
  402a97:	48 b8 63 72 65 61 74 	movabs $0x7320657461657263,%rax
  402a9e:	65 20 73 
  402aa1:	48 89 43 18          	mov    %rax,0x18(%rbx)
  402aa5:	c7 43 20 6f 63 6b 65 	movl   $0x656b636f,0x20(%rbx)
  402aac:	66 c7 43 24 74 00    	movw   $0x74,0x24(%rbx)
  402ab2:	b8 ff ff ff ff       	mov    $0xffffffff,%eax
  402ab7:	e9 53 06 00 00       	jmpq   40310f <submitr+0x71c>
  402abc:	41 89 c4             	mov    %eax,%r12d
  402abf:	4c 89 ff             	mov    %r15,%rdi
  402ac2:	e8 99 e3 ff ff       	callq  400e60 <gethostbyname@plt>
  402ac7:	48 85 c0             	test   %rax,%rax
  402aca:	75 68                	jne    402b34 <submitr+0x141>
  402acc:	48 b8 45 72 72 6f 72 	movabs $0x44203a726f727245,%rax
  402ad3:	3a 20 44 
  402ad6:	48 89 03             	mov    %rax,(%rbx)
  402ad9:	48 b8 4e 53 20 69 73 	movabs $0x6e7520736920534e,%rax
  402ae0:	20 75 6e 
  402ae3:	48 89 43 08          	mov    %rax,0x8(%rbx)
  402ae7:	48 b8 61 62 6c 65 20 	movabs $0x206f7420656c6261,%rax
  402aee:	74 6f 20 
  402af1:	48 89 43 10          	mov    %rax,0x10(%rbx)
  402af5:	48 b8 72 65 73 6f 6c 	movabs $0x2065766c6f736572,%rax
  402afc:	76 65 20 
  402aff:	48 89 43 18          	mov    %rax,0x18(%rbx)
  402b03:	48 b8 73 65 72 76 65 	movabs $0x6120726576726573,%rax
  402b0a:	72 20 61 
  402b0d:	48 89 43 20          	mov    %rax,0x20(%rbx)
  402b11:	c7 43 28 64 64 72 65 	movl   $0x65726464,0x28(%rbx)
  402b18:	66 c7 43 2c 73 73    	movw   $0x7373,0x2c(%rbx)
  402b1e:	c6 43 2e 00          	movb   $0x0,0x2e(%rbx)
  402b22:	44 89 e7             	mov    %r12d,%edi
  402b25:	e8 f6 e2 ff ff       	callq  400e20 <close@plt>
  402b2a:	b8 ff ff ff ff       	mov    $0xffffffff,%eax
  402b2f:	e9 db 05 00 00       	jmpq   40310f <submitr+0x71c>
  402b34:	48 c7 44 24 20 00 00 	movq   $0x0,0x20(%rsp)
  402b3b:	00 00 
  402b3d:	48 c7 44 24 28 00 00 	movq   $0x0,0x28(%rsp)
  402b44:	00 00 
  402b46:	66 c7 44 24 20 02 00 	movw   $0x2,0x20(%rsp)
  402b4d:	48 63 50 14          	movslq 0x14(%rax),%rdx
  402b51:	48 8b 40 18          	mov    0x18(%rax),%rax
  402b55:	48 8b 30             	mov    (%rax),%rsi
  402b58:	48 8d 7c 24 24       	lea    0x24(%rsp),%rdi
  402b5d:	b9 0c 00 00 00       	mov    $0xc,%ecx
  402b62:	e8 09 e3 ff ff       	callq  400e70 <__memmove_chk@plt>
  402b67:	66 c1 cd 08          	ror    $0x8,%bp
  402b6b:	66 89 6c 24 22       	mov    %bp,0x22(%rsp)
  402b70:	ba 10 00 00 00       	mov    $0x10,%edx
  402b75:	48 8d 74 24 20       	lea    0x20(%rsp),%rsi
  402b7a:	44 89 e7             	mov    %r12d,%edi
  402b7d:	e8 ee e3 ff ff       	callq  400f70 <connect@plt>
  402b82:	85 c0                	test   %eax,%eax
  402b84:	79 5a                	jns    402be0 <submitr+0x1ed>
  402b86:	48 b8 45 72 72 6f 72 	movabs $0x55203a726f727245,%rax
  402b8d:	3a 20 55 
  402b90:	48 89 03             	mov    %rax,(%rbx)
  402b93:	48 b8 6e 61 62 6c 65 	movabs $0x6f7420656c62616e,%rax
  402b9a:	20 74 6f 
  402b9d:	48 89 43 08          	mov    %rax,0x8(%rbx)
  402ba1:	48 b8 20 63 6f 6e 6e 	movabs $0x7463656e6e6f6320,%rax
  402ba8:	65 63 74 
  402bab:	48 89 43 10          	mov    %rax,0x10(%rbx)
  402baf:	48 b8 20 74 6f 20 74 	movabs $0x20656874206f7420,%rax
  402bb6:	68 65 20 
  402bb9:	48 89 43 18          	mov    %rax,0x18(%rbx)
  402bbd:	c7 43 20 73 65 72 76 	movl   $0x76726573,0x20(%rbx)
  402bc4:	66 c7 43 24 65 72    	movw   $0x7265,0x24(%rbx)
  402bca:	c6 43 26 00          	movb   $0x0,0x26(%rbx)
  402bce:	44 89 e7             	mov    %r12d,%edi
  402bd1:	e8 4a e2 ff ff       	callq  400e20 <close@plt>
  402bd6:	b8 ff ff ff ff       	mov    $0xffffffff,%eax
  402bdb:	e9 2f 05 00 00       	jmpq   40310f <submitr+0x71c>
  402be0:	49 c7 c0 ff ff ff ff 	mov    $0xffffffffffffffff,%r8
  402be7:	b8 00 00 00 00       	mov    $0x0,%eax
  402bec:	4c 89 c1             	mov    %r8,%rcx
  402bef:	4c 89 ef             	mov    %r13,%rdi
  402bf2:	f2 ae                	repnz scas %es:(%rdi),%al
  402bf4:	48 f7 d1             	not    %rcx
  402bf7:	48 89 ce             	mov    %rcx,%rsi
  402bfa:	4c 89 c1             	mov    %r8,%rcx
  402bfd:	48 8b 7c 24 08       	mov    0x8(%rsp),%rdi
  402c02:	f2 ae                	repnz scas %es:(%rdi),%al
  402c04:	48 f7 d1             	not    %rcx
  402c07:	48 89 ca             	mov    %rcx,%rdx
  402c0a:	48 8d bc 24 40 20 00 	lea    0x2040(%rsp),%rdi
  402c11:	00 
  402c12:	4c 89 c1             	mov    %r8,%rcx
  402c15:	f2 ae                	repnz scas %es:(%rdi),%al
  402c17:	48 f7 d1             	not    %rcx
  402c1a:	48 8d 54 0a fe       	lea    -0x2(%rdx,%rcx,1),%rdx
  402c1f:	4c 89 c1             	mov    %r8,%rcx
  402c22:	4c 89 f7             	mov    %r14,%rdi
  402c25:	f2 ae                	repnz scas %es:(%rdi),%al
  402c27:	48 89 c8             	mov    %rcx,%rax
  402c2a:	48 f7 d0             	not    %rax
  402c2d:	48 8d 54 02 ff       	lea    -0x1(%rdx,%rax,1),%rdx
  402c32:	48 8d 44 76 fd       	lea    -0x3(%rsi,%rsi,2),%rax
  402c37:	48 8d 84 02 80 00 00 	lea    0x80(%rdx,%rax,1),%rax
  402c3e:	00 
  402c3f:	48 3d 00 20 00 00    	cmp    $0x2000,%rax
  402c45:	76 73                	jbe    402cba <submitr+0x2c7>
  402c47:	48 b8 45 72 72 6f 72 	movabs $0x52203a726f727245,%rax
  402c4e:	3a 20 52 
  402c51:	48 89 03             	mov    %rax,(%rbx)
  402c54:	48 b8 65 73 75 6c 74 	movabs $0x747320746c757365,%rax
  402c5b:	20 73 74 
  402c5e:	48 89 43 08          	mov    %rax,0x8(%rbx)
  402c62:	48 b8 72 69 6e 67 20 	movabs $0x6f6f7420676e6972,%rax
  402c69:	74 6f 6f 
  402c6c:	48 89 43 10          	mov    %rax,0x10(%rbx)
  402c70:	48 b8 20 6c 61 72 67 	movabs $0x202e656772616c20,%rax
  402c77:	65 2e 20 
  402c7a:	48 89 43 18          	mov    %rax,0x18(%rbx)
  402c7e:	48 b8 49 6e 63 72 65 	movabs $0x6573616572636e49,%rax
  402c85:	61 73 65 
  402c88:	48 89 43 20          	mov    %rax,0x20(%rbx)
  402c8c:	48 b8 20 53 55 42 4d 	movabs $0x5254494d42555320,%rax
  402c93:	49 54 52 
  402c96:	48 89 43 28          	mov    %rax,0x28(%rbx)
  402c9a:	48 b8 5f 4d 41 58 42 	movabs $0x46554258414d5f,%rax
  402ca1:	55 46 00 
  402ca4:	48 89 43 30          	mov    %rax,0x30(%rbx)
  402ca8:	44 89 e7             	mov    %r12d,%edi
  402cab:	e8 70 e1 ff ff       	callq  400e20 <close@plt>
  402cb0:	b8 ff ff ff ff       	mov    $0xffffffff,%eax
  402cb5:	e9 55 04 00 00       	jmpq   40310f <submitr+0x71c>
  402cba:	48 8d 94 24 50 40 00 	lea    0x4050(%rsp),%rdx
  402cc1:	00 
  402cc2:	4c 89 ee             	mov    %r13,%rsi
  402cc5:	48 8d bc 24 40 20 00 	lea    0x2040(%rsp),%rdi
  402ccc:	00 
  402ccd:	e8 4b f9 ff ff       	callq  40261d <jsonencode>
  402cd2:	85 c0                	test   %eax,%eax
  402cd4:	79 62                	jns    402d38 <submitr+0x345>
  402cd6:	48 b8 45 72 72 6f 72 	movabs $0x43203a726f727245,%rax
  402cdd:	3a 20 43 
  402ce0:	48 89 03             	mov    %rax,(%rbx)
  402ce3:	48 b8 6f 75 6c 64 20 	movabs $0x746f6e20646c756f,%rax
  402cea:	6e 6f 74 
  402ced:	48 89 43 08          	mov    %rax,0x8(%rbx)
  402cf1:	48 b8 20 4a 53 4f 4e 	movabs $0x6e65204e4f534a20,%rax
  402cf8:	20 65 6e 
  402cfb:	48 89 43 10          	mov    %rax,0x10(%rbx)
  402cff:	48 b8 63 6f 64 65 20 	movabs $0x7365722065646f63,%rax
  402d06:	72 65 73 
  402d09:	48 89 43 18          	mov    %rax,0x18(%rbx)
  402d0d:	48 b8 75 6c 74 73 20 	movabs $0x7274732073746c75,%rax
  402d14:	73 74 72 
  402d17:	48 89 43 20          	mov    %rax,0x20(%rbx)
  402d1b:	c7 43 28 69 6e 67 2e 	movl   $0x2e676e69,0x28(%rbx)
  402d22:	c6 43 2c 00          	movb   $0x0,0x2c(%rbx)
  402d26:	44 89 e7             	mov    %r12d,%edi
  402d29:	e8 f2 e0 ff ff       	callq  400e20 <close@plt>
  402d2e:	b8 ff ff ff ff       	mov    $0xffffffff,%eax
  402d33:	e9 d7 03 00 00       	jmpq   40310f <submitr+0x71c>
  402d38:	48 8d ac 24 50 20 00 	lea    0x2050(%rsp),%rbp
  402d3f:	00 
  402d40:	4c 8d 84 24 50 40 00 	lea    0x4050(%rsp),%r8
  402d47:	00 
  402d48:	b9 78 3b 40 00       	mov    $0x403b78,%ecx
  402d4d:	ba 00 20 00 00       	mov    $0x2000,%edx
  402d52:	be 01 00 00 00       	mov    $0x1,%esi
  402d57:	48 89 ef             	mov    %rbp,%rdi
  402d5a:	b8 00 00 00 00       	mov    $0x0,%eax
  402d5f:	e8 3c e2 ff ff       	callq  400fa0 <__sprintf_chk@plt>
  402d64:	b8 00 00 00 00       	mov    $0x0,%eax
  402d69:	48 c7 c1 ff ff ff ff 	mov    $0xffffffffffffffff,%rcx
  402d70:	48 89 ef             	mov    %rbp,%rdi
  402d73:	f2 ae                	repnz scas %es:(%rdi),%al
  402d75:	48 f7 d1             	not    %rcx
  402d78:	48 8d 51 ff          	lea    -0x1(%rcx),%rdx
  402d7c:	48 89 ee             	mov    %rbp,%rsi
  402d7f:	44 89 e7             	mov    %r12d,%edi
  402d82:	e8 f8 f5 ff ff       	callq  40237f <rio_writen>
  402d87:	48 85 c0             	test   %rax,%rax
  402d8a:	79 6f                	jns    402dfb <submitr+0x408>
  402d8c:	48 b8 45 72 72 6f 72 	movabs $0x43203a726f727245,%rax
  402d93:	3a 20 43 
  402d96:	48 89 03             	mov    %rax,(%rbx)
  402d99:	48 b8 6c 69 65 6e 74 	movabs $0x6e7520746e65696c,%rax
  402da0:	20 75 6e 
  402da3:	48 89 43 08          	mov    %rax,0x8(%rbx)
  402da7:	48 b8 61 62 6c 65 20 	movabs $0x206f7420656c6261,%rax
  402dae:	74 6f 20 
  402db1:	48 89 43 10          	mov    %rax,0x10(%rbx)
  402db5:	48 b8 77 72 69 74 65 	movabs $0x6f74206574697277,%rax
  402dbc:	20 74 6f 
  402dbf:	48 89 43 18          	mov    %rax,0x18(%rbx)
  402dc3:	48 b8 20 74 68 65 20 	movabs $0x7365722065687420,%rax
  402dca:	72 65 73 
  402dcd:	48 89 43 20          	mov    %rax,0x20(%rbx)
  402dd1:	48 b8 75 6c 74 20 73 	movabs $0x7672657320746c75,%rax
  402dd8:	65 72 76 
  402ddb:	48 89 43 28          	mov    %rax,0x28(%rbx)
  402ddf:	66 c7 43 30 65 72    	movw   $0x7265,0x30(%rbx)
  402de5:	c6 43 32 00          	movb   $0x0,0x32(%rbx)
  402de9:	44 89 e7             	mov    %r12d,%edi
  402dec:	e8 2f e0 ff ff       	callq  400e20 <close@plt>
  402df1:	b8 ff ff ff ff       	mov    $0xffffffff,%eax
  402df6:	e9 14 03 00 00       	jmpq   40310f <submitr+0x71c>
  402dfb:	44 89 e6             	mov    %r12d,%esi
  402dfe:	48 8d 7c 24 30       	lea    0x30(%rsp),%rdi
  402e03:	e8 37 f5 ff ff       	callq  40233f <rio_readinitb>
  402e08:	ba 00 20 00 00       	mov    $0x2000,%edx
  402e0d:	48 8d b4 24 50 20 00 	lea    0x2050(%rsp),%rsi
  402e14:	00 
  402e15:	48 8d 7c 24 30       	lea    0x30(%rsp),%rdi
  402e1a:	e8 47 f6 ff ff       	callq  402466 <rio_readlineb>
  402e1f:	48 85 c0             	test   %rax,%rax
  402e22:	7f 7e                	jg     402ea2 <submitr+0x4af>
  402e24:	48 b8 45 72 72 6f 72 	movabs $0x43203a726f727245,%rax
  402e2b:	3a 20 43 
  402e2e:	48 89 03             	mov    %rax,(%rbx)
  402e31:	48 b8 6c 69 65 6e 74 	movabs $0x6e7520746e65696c,%rax
  402e38:	20 75 6e 
  402e3b:	48 89 43 08          	mov    %rax,0x8(%rbx)
  402e3f:	48 b8 61 62 6c 65 20 	movabs $0x206f7420656c6261,%rax
  402e46:	74 6f 20 
  402e49:	48 89 43 10          	mov    %rax,0x10(%rbx)
  402e4d:	48 b8 72 65 61 64 20 	movabs $0x7269662064616572,%rax
  402e54:	66 69 72 
  402e57:	48 89 43 18          	mov    %rax,0x18(%rbx)
  402e5b:	48 b8 73 74 20 68 65 	movabs $0x6564616568207473,%rax
  402e62:	61 64 65 
  402e65:	48 89 43 20          	mov    %rax,0x20(%rbx)
  402e69:	48 b8 72 20 66 72 6f 	movabs $0x72206d6f72662072,%rax
  402e70:	6d 20 72 
  402e73:	48 89 43 28          	mov    %rax,0x28(%rbx)
  402e77:	48 b8 65 73 75 6c 74 	movabs $0x657320746c757365,%rax
  402e7e:	20 73 65 
  402e81:	48 89 43 30          	mov    %rax,0x30(%rbx)
  402e85:	c7 43 38 72 76 65 72 	movl   $0x72657672,0x38(%rbx)
  402e8c:	c6 43 3c 00          	movb   $0x0,0x3c(%rbx)
  402e90:	44 89 e7             	mov    %r12d,%edi
  402e93:	e8 88 df ff ff       	callq  400e20 <close@plt>
  402e98:	b8 ff ff ff ff       	mov    $0xffffffff,%eax
  402e9d:	e9 6d 02 00 00       	jmpq   40310f <submitr+0x71c>
  402ea2:	4c 8d 84 24 50 80 00 	lea    0x8050(%rsp),%r8
  402ea9:	00 
  402eaa:	48 8d 4c 24 1c       	lea    0x1c(%rsp),%rcx
  402eaf:	48 8d 94 24 50 60 00 	lea    0x6050(%rsp),%rdx
  402eb6:	00 
  402eb7:	be 03 3c 40 00       	mov    $0x403c03,%esi
  402ebc:	48 8d bc 24 50 20 00 	lea    0x2050(%rsp),%rdi
  402ec3:	00 
  402ec4:	b8 00 00 00 00       	mov    $0x0,%eax
  402ec9:	e8 02 e0 ff ff       	callq  400ed0 <__isoc99_sscanf@plt>
  402ece:	e9 96 00 00 00       	jmpq   402f69 <submitr+0x576>
  402ed3:	ba 00 20 00 00       	mov    $0x2000,%edx
  402ed8:	48 8d b4 24 50 20 00 	lea    0x2050(%rsp),%rsi
  402edf:	00 
  402ee0:	48 8d 7c 24 30       	lea    0x30(%rsp),%rdi
  402ee5:	e8 7c f5 ff ff       	callq  402466 <rio_readlineb>
  402eea:	48 85 c0             	test   %rax,%rax
  402eed:	7f 7a                	jg     402f69 <submitr+0x576>
  402eef:	48 b8 45 72 72 6f 72 	movabs $0x43203a726f727245,%rax
  402ef6:	3a 20 43 
  402ef9:	48 89 03             	mov    %rax,(%rbx)
  402efc:	48 b8 6c 69 65 6e 74 	movabs $0x6e7520746e65696c,%rax
  402f03:	20 75 6e 
  402f06:	48 89 43 08          	mov    %rax,0x8(%rbx)
  402f0a:	48 b8 61 62 6c 65 20 	movabs $0x206f7420656c6261,%rax
  402f11:	74 6f 20 
  402f14:	48 89 43 10          	mov    %rax,0x10(%rbx)
  402f18:	48 b8 72 65 61 64 20 	movabs $0x6165682064616572,%rax
  402f1f:	68 65 61 
  402f22:	48 89 43 18          	mov    %rax,0x18(%rbx)
  402f26:	48 b8 64 65 72 73 20 	movabs $0x6f72662073726564,%rax
  402f2d:	66 72 6f 
  402f30:	48 89 43 20          	mov    %rax,0x20(%rbx)
  402f34:	48 b8 6d 20 74 68 65 	movabs $0x657220656874206d,%rax
  402f3b:	20 72 65 
  402f3e:	48 89 43 28          	mov    %rax,0x28(%rbx)
  402f42:	48 b8 73 75 6c 74 20 	movabs $0x72657320746c7573,%rax
  402f49:	73 65 72 
  402f4c:	48 89 43 30          	mov    %rax,0x30(%rbx)
  402f50:	c7 43 38 76 65 72 00 	movl   $0x726576,0x38(%rbx)
  402f57:	44 89 e7             	mov    %r12d,%edi
  402f5a:	e8 c1 de ff ff       	callq  400e20 <close@plt>
  402f5f:	b8 ff ff ff ff       	mov    $0xffffffff,%eax
  402f64:	e9 a6 01 00 00       	jmpq   40310f <submitr+0x71c>
  402f69:	0f b6 94 24 50 20 00 	movzbl 0x2050(%rsp),%edx
  402f70:	00 
  402f71:	b8 0d 00 00 00       	mov    $0xd,%eax
  402f76:	29 d0                	sub    %edx,%eax
  402f78:	75 1b                	jne    402f95 <submitr+0x5a2>
  402f7a:	0f b6 94 24 51 20 00 	movzbl 0x2051(%rsp),%edx
  402f81:	00 
  402f82:	b8 0a 00 00 00       	mov    $0xa,%eax
  402f87:	29 d0                	sub    %edx,%eax
  402f89:	75 0a                	jne    402f95 <submitr+0x5a2>
  402f8b:	0f b6 84 24 52 20 00 	movzbl 0x2052(%rsp),%eax
  402f92:	00 
  402f93:	f7 d8                	neg    %eax
  402f95:	85 c0                	test   %eax,%eax
  402f97:	0f 85 36 ff ff ff    	jne    402ed3 <submitr+0x4e0>
  402f9d:	4c 89 e9             	mov    %r13,%rcx
  402fa0:	48 8d 94 24 40 20 00 	lea    0x2040(%rsp),%rdx
  402fa7:	00 
  402fa8:	48 8d b4 24 50 20 00 	lea    0x2050(%rsp),%rsi
  402faf:	00 
  402fb0:	48 8d 7c 24 30       	lea    0x30(%rsp),%rdi
  402fb5:	e8 da f9 ff ff       	callq  402994 <readServerStatus>
  402fba:	85 c0                	test   %eax,%eax
  402fbc:	75 73                	jne    403031 <submitr+0x63e>
  402fbe:	48 b8 45 72 72 6f 72 	movabs $0x43203a726f727245,%rax
  402fc5:	3a 20 43 
  402fc8:	48 89 03             	mov    %rax,(%rbx)
  402fcb:	48 b8 6c 69 65 6e 74 	movabs $0x6e7520746e65696c,%rax
  402fd2:	20 75 6e 
  402fd5:	48 89 43 08          	mov    %rax,0x8(%rbx)
  402fd9:	48 b8 61 62 6c 65 20 	movabs $0x206f7420656c6261,%rax
  402fe0:	74 6f 20 
  402fe3:	48 89 43 10          	mov    %rax,0x10(%rbx)
  402fe7:	48 b8 72 65 61 64 20 	movabs $0x6174732064616572,%rax
  402fee:	73 74 61 
  402ff1:	48 89 43 18          	mov    %rax,0x18(%rbx)
  402ff5:	48 b8 74 75 73 20 6d 	movabs $0x7373656d20737574,%rax
  402ffc:	65 73 73 
  402fff:	48 89 43 20          	mov    %rax,0x20(%rbx)
  403003:	48 b8 61 67 65 20 66 	movabs $0x6d6f726620656761,%rax
  40300a:	72 6f 6d 
  40300d:	48 89 43 28          	mov    %rax,0x28(%rbx)
  403011:	48 b8 20 73 65 72 76 	movabs $0x72657672657320,%rax
  403018:	65 72 00 
  40301b:	48 89 43 30          	mov    %rax,0x30(%rbx)
  40301f:	44 89 e7             	mov    %r12d,%edi
  403022:	e8 f9 dd ff ff       	callq  400e20 <close@plt>
  403027:	b8 ff ff ff ff       	mov    $0xffffffff,%eax
  40302c:	e9 de 00 00 00       	jmpq   40310f <submitr+0x71c>
  403031:	44 8b 44 24 1c       	mov    0x1c(%rsp),%r8d
  403036:	41 81 f8 c8 00 00 00 	cmp    $0xc8,%r8d
  40303d:	74 38                	je     403077 <submitr+0x684>
  40303f:	4c 8d 8c 24 50 80 00 	lea    0x8050(%rsp),%r9
  403046:	00 
  403047:	b9 a0 3b 40 00       	mov    $0x403ba0,%ecx
  40304c:	48 c7 c2 ff ff ff ff 	mov    $0xffffffffffffffff,%rdx
  403053:	be 01 00 00 00       	mov    $0x1,%esi
  403058:	48 89 df             	mov    %rbx,%rdi
  40305b:	b8 00 00 00 00       	mov    $0x0,%eax
  403060:	e8 3b df ff ff       	callq  400fa0 <__sprintf_chk@plt>
  403065:	44 89 e7             	mov    %r12d,%edi
  403068:	e8 b3 dd ff ff       	callq  400e20 <close@plt>
  40306d:	b8 ff ff ff ff       	mov    $0xffffffff,%eax
  403072:	e9 98 00 00 00       	jmpq   40310f <submitr+0x71c>
  403077:	48 8d b4 24 50 20 00 	lea    0x2050(%rsp),%rsi
  40307e:	00 
  40307f:	48 89 df             	mov    %rbx,%rdi
  403082:	e8 29 dd ff ff       	callq  400db0 <strcpy@plt>
  403087:	44 89 e7             	mov    %r12d,%edi
  40308a:	e8 91 dd ff ff       	callq  400e20 <close@plt>
  40308f:	0f b6 03             	movzbl (%rbx),%eax
  403092:	ba 4f 00 00 00       	mov    $0x4f,%edx
  403097:	29 c2                	sub    %eax,%edx
  403099:	75 22                	jne    4030bd <submitr+0x6ca>
  40309b:	0f b6 4b 01          	movzbl 0x1(%rbx),%ecx
  40309f:	b8 4b 00 00 00       	mov    $0x4b,%eax
  4030a4:	29 c8                	sub    %ecx,%eax
  4030a6:	75 17                	jne    4030bf <submitr+0x6cc>
  4030a8:	0f b6 4b 02          	movzbl 0x2(%rbx),%ecx
  4030ac:	b8 0a 00 00 00       	mov    $0xa,%eax
  4030b1:	29 c8                	sub    %ecx,%eax
  4030b3:	75 0a                	jne    4030bf <submitr+0x6cc>
  4030b5:	0f b6 43 03          	movzbl 0x3(%rbx),%eax
  4030b9:	f7 d8                	neg    %eax
  4030bb:	eb 02                	jmp    4030bf <submitr+0x6cc>
  4030bd:	89 d0                	mov    %edx,%eax
  4030bf:	85 c0                	test   %eax,%eax
  4030c1:	74 40                	je     403103 <submitr+0x710>
  4030c3:	bf 14 3c 40 00       	mov    $0x403c14,%edi
  4030c8:	b9 05 00 00 00       	mov    $0x5,%ecx
  4030cd:	48 89 de             	mov    %rbx,%rsi
  4030d0:	f3 a6                	repz cmpsb %es:(%rdi),%ds:(%rsi)
  4030d2:	0f 97 c0             	seta   %al
  4030d5:	0f 92 c1             	setb   %cl
  4030d8:	29 c8                	sub    %ecx,%eax
  4030da:	0f be c0             	movsbl %al,%eax
  4030dd:	85 c0                	test   %eax,%eax
  4030df:	74 2e                	je     40310f <submitr+0x71c>
  4030e1:	85 d2                	test   %edx,%edx
  4030e3:	75 13                	jne    4030f8 <submitr+0x705>
  4030e5:	0f b6 43 01          	movzbl 0x1(%rbx),%eax
  4030e9:	ba 4b 00 00 00       	mov    $0x4b,%edx
  4030ee:	29 c2                	sub    %eax,%edx
  4030f0:	75 06                	jne    4030f8 <submitr+0x705>
  4030f2:	0f b6 53 02          	movzbl 0x2(%rbx),%edx
  4030f6:	f7 da                	neg    %edx
  4030f8:	85 d2                	test   %edx,%edx
  4030fa:	75 0e                	jne    40310a <submitr+0x717>
  4030fc:	b8 00 00 00 00       	mov    $0x0,%eax
  403101:	eb 0c                	jmp    40310f <submitr+0x71c>
  403103:	b8 00 00 00 00       	mov    $0x0,%eax
  403108:	eb 05                	jmp    40310f <submitr+0x71c>
  40310a:	b8 ff ff ff ff       	mov    $0xffffffff,%eax
  40310f:	48 8b 9c 24 58 a0 00 	mov    0xa058(%rsp),%rbx
  403116:	00 
  403117:	64 48 33 1c 25 28 00 	xor    %fs:0x28,%rbx
  40311e:	00 00 
  403120:	74 05                	je     403127 <submitr+0x734>
  403122:	e8 b9 dc ff ff       	callq  400de0 <__stack_chk_fail@plt>
  403127:	48 81 c4 68 a0 00 00 	add    $0xa068,%rsp
  40312e:	5b                   	pop    %rbx
  40312f:	5d                   	pop    %rbp
  403130:	41 5c                	pop    %r12
  403132:	41 5d                	pop    %r13
  403134:	41 5e                	pop    %r14
  403136:	41 5f                	pop    %r15
  403138:	c3                   	retq   

0000000000403139 <init_timeout>:
  403139:	85 ff                	test   %edi,%edi
  40313b:	74 23                	je     403160 <init_timeout+0x27>
  40313d:	53                   	push   %rbx
  40313e:	89 fb                	mov    %edi,%ebx
  403140:	85 ff                	test   %edi,%edi
  403142:	79 05                	jns    403149 <init_timeout+0x10>
  403144:	bb 00 00 00 00       	mov    $0x0,%ebx
  403149:	be 51 23 40 00       	mov    $0x402351,%esi
  40314e:	bf 0e 00 00 00       	mov    $0xe,%edi
  403153:	e8 f8 dc ff ff       	callq  400e50 <signal@plt>
  403158:	89 df                	mov    %ebx,%edi
  40315a:	e8 b1 dc ff ff       	callq  400e10 <alarm@plt>
  40315f:	5b                   	pop    %rbx
  403160:	f3 c3                	repz retq 

0000000000403162 <init_driver>:
  403162:	55                   	push   %rbp
  403163:	53                   	push   %rbx
  403164:	48 83 ec 28          	sub    $0x28,%rsp
  403168:	48 89 fd             	mov    %rdi,%rbp
  40316b:	64 48 8b 04 25 28 00 	mov    %fs:0x28,%rax
  403172:	00 00 
  403174:	48 89 44 24 18       	mov    %rax,0x18(%rsp)
  403179:	31 c0                	xor    %eax,%eax
  40317b:	be 01 00 00 00       	mov    $0x1,%esi
  403180:	bf 0d 00 00 00       	mov    $0xd,%edi
  403185:	e8 c6 dc ff ff       	callq  400e50 <signal@plt>
  40318a:	be 01 00 00 00       	mov    $0x1,%esi
  40318f:	bf 1d 00 00 00       	mov    $0x1d,%edi
  403194:	e8 b7 dc ff ff       	callq  400e50 <signal@plt>
  403199:	be 01 00 00 00       	mov    $0x1,%esi
  40319e:	bf 1d 00 00 00       	mov    $0x1d,%edi
  4031a3:	e8 a8 dc ff ff       	callq  400e50 <signal@plt>
  4031a8:	ba 00 00 00 00       	mov    $0x0,%edx
  4031ad:	be 01 00 00 00       	mov    $0x1,%esi
  4031b2:	bf 02 00 00 00       	mov    $0x2,%edi
  4031b7:	e8 f4 dd ff ff       	callq  400fb0 <socket@plt>
  4031bc:	85 c0                	test   %eax,%eax
  4031be:	79 4f                	jns    40320f <init_driver+0xad>
  4031c0:	48 b8 45 72 72 6f 72 	movabs $0x43203a726f727245,%rax
  4031c7:	3a 20 43 
  4031ca:	48 89 45 00          	mov    %rax,0x0(%rbp)
  4031ce:	48 b8 6c 69 65 6e 74 	movabs $0x6e7520746e65696c,%rax
  4031d5:	20 75 6e 
  4031d8:	48 89 45 08          	mov    %rax,0x8(%rbp)
  4031dc:	48 b8 61 62 6c 65 20 	movabs $0x206f7420656c6261,%rax
  4031e3:	74 6f 20 
  4031e6:	48 89 45 10          	mov    %rax,0x10(%rbp)
  4031ea:	48 b8 63 72 65 61 74 	movabs $0x7320657461657263,%rax
  4031f1:	65 20 73 
  4031f4:	48 89 45 18          	mov    %rax,0x18(%rbp)
  4031f8:	c7 45 20 6f 63 6b 65 	movl   $0x656b636f,0x20(%rbp)
  4031ff:	66 c7 45 24 74 00    	movw   $0x74,0x24(%rbp)
  403205:	b8 ff ff ff ff       	mov    $0xffffffff,%eax
  40320a:	e9 2a 01 00 00       	jmpq   403339 <init_driver+0x1d7>
  40320f:	89 c3                	mov    %eax,%ebx
  403211:	bf 19 3c 40 00       	mov    $0x403c19,%edi
  403216:	e8 45 dc ff ff       	callq  400e60 <gethostbyname@plt>
  40321b:	48 85 c0             	test   %rax,%rax
  40321e:	75 68                	jne    403288 <init_driver+0x126>
  403220:	48 b8 45 72 72 6f 72 	movabs $0x44203a726f727245,%rax
  403227:	3a 20 44 
  40322a:	48 89 45 00          	mov    %rax,0x0(%rbp)
  40322e:	48 b8 4e 53 20 69 73 	movabs $0x6e7520736920534e,%rax
  403235:	20 75 6e 
  403238:	48 89 45 08          	mov    %rax,0x8(%rbp)
  40323c:	48 b8 61 62 6c 65 20 	movabs $0x206f7420656c6261,%rax
  403243:	74 6f 20 
  403246:	48 89 45 10          	mov    %rax,0x10(%rbp)
  40324a:	48 b8 72 65 73 6f 6c 	movabs $0x2065766c6f736572,%rax
  403251:	76 65 20 
  403254:	48 89 45 18          	mov    %rax,0x18(%rbp)
  403258:	48 b8 73 65 72 76 65 	movabs $0x6120726576726573,%rax
  40325f:	72 20 61 
  403262:	48 89 45 20          	mov    %rax,0x20(%rbp)
  403266:	c7 45 28 64 64 72 65 	movl   $0x65726464,0x28(%rbp)
  40326d:	66 c7 45 2c 73 73    	movw   $0x7373,0x2c(%rbp)
  403273:	c6 45 2e 00          	movb   $0x0,0x2e(%rbp)
  403277:	89 df                	mov    %ebx,%edi
  403279:	e8 a2 db ff ff       	callq  400e20 <close@plt>
  40327e:	b8 ff ff ff ff       	mov    $0xffffffff,%eax
  403283:	e9 b1 00 00 00       	jmpq   403339 <init_driver+0x1d7>
  403288:	48 c7 04 24 00 00 00 	movq   $0x0,(%rsp)
  40328f:	00 
  403290:	48 c7 44 24 08 00 00 	movq   $0x0,0x8(%rsp)
  403297:	00 00 
  403299:	66 c7 04 24 02 00    	movw   $0x2,(%rsp)
  40329f:	48 63 50 14          	movslq 0x14(%rax),%rdx
  4032a3:	48 8b 40 18          	mov    0x18(%rax),%rax
  4032a7:	48 8b 30             	mov    (%rax),%rsi
  4032aa:	48 8d 7c 24 04       	lea    0x4(%rsp),%rdi
  4032af:	b9 0c 00 00 00       	mov    $0xc,%ecx
  4032b4:	e8 b7 db ff ff       	callq  400e70 <__memmove_chk@plt>
  4032b9:	66 c7 44 24 02 1f 7c 	movw   $0x7c1f,0x2(%rsp)
  4032c0:	ba 10 00 00 00       	mov    $0x10,%edx
  4032c5:	48 89 e6             	mov    %rsp,%rsi
  4032c8:	89 df                	mov    %ebx,%edi
  4032ca:	e8 a1 dc ff ff       	callq  400f70 <connect@plt>
  4032cf:	85 c0                	test   %eax,%eax
  4032d1:	79 50                	jns    403323 <init_driver+0x1c1>
  4032d3:	48 b8 45 72 72 6f 72 	movabs $0x55203a726f727245,%rax
  4032da:	3a 20 55 
  4032dd:	48 89 45 00          	mov    %rax,0x0(%rbp)
  4032e1:	48 b8 6e 61 62 6c 65 	movabs $0x6f7420656c62616e,%rax
  4032e8:	20 74 6f 
  4032eb:	48 89 45 08          	mov    %rax,0x8(%rbp)
  4032ef:	48 b8 20 63 6f 6e 6e 	movabs $0x7463656e6e6f6320,%rax
  4032f6:	65 63 74 
  4032f9:	48 89 45 10          	mov    %rax,0x10(%rbp)
  4032fd:	48 b8 20 74 6f 20 73 	movabs $0x76726573206f7420,%rax
  403304:	65 72 76 
  403307:	48 89 45 18          	mov    %rax,0x18(%rbp)
  40330b:	66 c7 45 20 65 72    	movw   $0x7265,0x20(%rbp)
  403311:	c6 45 22 00          	movb   $0x0,0x22(%rbp)
  403315:	89 df                	mov    %ebx,%edi
  403317:	e8 04 db ff ff       	callq  400e20 <close@plt>
  40331c:	b8 ff ff ff ff       	mov    $0xffffffff,%eax
  403321:	eb 16                	jmp    403339 <init_driver+0x1d7>
  403323:	89 df                	mov    %ebx,%edi
  403325:	e8 f6 da ff ff       	callq  400e20 <close@plt>
  40332a:	66 c7 45 00 4f 4b    	movw   $0x4b4f,0x0(%rbp)
  403330:	c6 45 02 00          	movb   $0x0,0x2(%rbp)
  403334:	b8 00 00 00 00       	mov    $0x0,%eax
  403339:	48 8b 4c 24 18       	mov    0x18(%rsp),%rcx
  40333e:	64 48 33 0c 25 28 00 	xor    %fs:0x28,%rcx
  403345:	00 00 
  403347:	74 05                	je     40334e <init_driver+0x1ec>
  403349:	e8 92 da ff ff       	callq  400de0 <__stack_chk_fail@plt>
  40334e:	48 83 c4 28          	add    $0x28,%rsp
  403352:	5b                   	pop    %rbx
  403353:	5d                   	pop    %rbp
  403354:	c3                   	retq   

0000000000403355 <driver_post>:
  403355:	53                   	push   %rbx
  403356:	4c 89 cb             	mov    %r9,%rbx
  403359:	45 85 c0             	test   %r8d,%r8d
  40335c:	74 27                	je     403385 <driver_post+0x30>
  40335e:	48 89 ca             	mov    %rcx,%rdx
  403361:	be 24 3c 40 00       	mov    $0x403c24,%esi
  403366:	bf 01 00 00 00       	mov    $0x1,%edi
  40336b:	b8 00 00 00 00       	mov    $0x0,%eax
  403370:	e8 7b db ff ff       	callq  400ef0 <__printf_chk@plt>
  403375:	66 c7 03 4f 4b       	movw   $0x4b4f,(%rbx)
  40337a:	c6 43 02 00          	movb   $0x0,0x2(%rbx)
  40337e:	b8 00 00 00 00       	mov    $0x0,%eax
  403383:	eb 3c                	jmp    4033c1 <driver_post+0x6c>
  403385:	48 85 ff             	test   %rdi,%rdi
  403388:	74 27                	je     4033b1 <driver_post+0x5c>
  40338a:	48 83 ec 08          	sub    $0x8,%rsp
  40338e:	41 51                	push   %r9
  403390:	49 89 c9             	mov    %rcx,%r9
  403393:	49 89 d0             	mov    %rdx,%r8
  403396:	48 89 f9             	mov    %rdi,%rcx
  403399:	48 89 f2             	mov    %rsi,%rdx
  40339c:	be 7c 1f 00 00       	mov    $0x1f7c,%esi
  4033a1:	bf 19 3c 40 00       	mov    $0x403c19,%edi
  4033a6:	e8 48 f6 ff ff       	callq  4029f3 <submitr>
  4033ab:	48 83 c4 10          	add    $0x10,%rsp
  4033af:	eb 10                	jmp    4033c1 <driver_post+0x6c>
  4033b1:	66 41 c7 01 4f 4b    	movw   $0x4b4f,(%r9)
  4033b7:	41 c6 41 02 00       	movb   $0x0,0x2(%r9)
  4033bc:	b8 00 00 00 00       	mov    $0x0,%eax
  4033c1:	5b                   	pop    %rbx
  4033c2:	c3                   	retq   

00000000004033c3 <check>:
  4033c3:	89 f8                	mov    %edi,%eax
  4033c5:	c1 e8 1c             	shr    $0x1c,%eax
  4033c8:	85 c0                	test   %eax,%eax
  4033ca:	74 1d                	je     4033e9 <check+0x26>
  4033cc:	b9 00 00 00 00       	mov    $0x0,%ecx
  4033d1:	eb 0b                	jmp    4033de <check+0x1b>
  4033d3:	89 f8                	mov    %edi,%eax
  4033d5:	d3 e8                	shr    %cl,%eax
  4033d7:	3c 0a                	cmp    $0xa,%al
  4033d9:	74 14                	je     4033ef <check+0x2c>
  4033db:	83 c1 08             	add    $0x8,%ecx
  4033de:	83 f9 1f             	cmp    $0x1f,%ecx
  4033e1:	7e f0                	jle    4033d3 <check+0x10>
  4033e3:	b8 01 00 00 00       	mov    $0x1,%eax
  4033e8:	c3                   	retq   
  4033e9:	b8 00 00 00 00       	mov    $0x0,%eax
  4033ee:	c3                   	retq   
  4033ef:	b8 00 00 00 00       	mov    $0x0,%eax
  4033f4:	c3                   	retq   

00000000004033f5 <make_magic>:
  4033f5:	53                   	push   %rbx
  4033f6:	83 c7 01             	add    $0x1,%edi
  4033f9:	e8 92 d9 ff ff       	callq  400d90 <srandom@plt>
  4033fe:	e8 ad da ff ff       	callq  400eb0 <random@plt>
  403403:	89 c3                	mov    %eax,%ebx
  403405:	89 c7                	mov    %eax,%edi
  403407:	e8 b7 ff ff ff       	callq  4033c3 <check>
  40340c:	85 c0                	test   %eax,%eax
  40340e:	74 ee                	je     4033fe <make_magic+0x9>
  403410:	89 d8                	mov    %ebx,%eax
  403412:	5b                   	pop    %rbx
  403413:	c3                   	retq   
  403414:	66 2e 0f 1f 84 00 00 	nopw   %cs:0x0(%rax,%rax,1)
  40341b:	00 00 00 
  40341e:	66 90                	xchg   %ax,%ax

0000000000403420 <__libc_csu_init>:
  403420:	41 57                	push   %r15
  403422:	41 56                	push   %r14
  403424:	41 89 ff             	mov    %edi,%r15d
  403427:	41 55                	push   %r13
  403429:	41 54                	push   %r12
  40342b:	4c 8d 25 de 19 20 00 	lea    0x2019de(%rip),%r12        # 604e10 <__frame_dummy_init_array_entry>
  403432:	55                   	push   %rbp
  403433:	48 8d 2d de 19 20 00 	lea    0x2019de(%rip),%rbp        # 604e18 <__init_array_end>
  40343a:	53                   	push   %rbx
  40343b:	49 89 f6             	mov    %rsi,%r14
  40343e:	49 89 d5             	mov    %rdx,%r13
  403441:	4c 29 e5             	sub    %r12,%rbp
  403444:	48 83 ec 08          	sub    $0x8,%rsp
  403448:	48 c1 fd 03          	sar    $0x3,%rbp
  40344c:	e8 df d8 ff ff       	callq  400d30 <_init>
  403451:	48 85 ed             	test   %rbp,%rbp
  403454:	74 20                	je     403476 <__libc_csu_init+0x56>
  403456:	31 db                	xor    %ebx,%ebx
  403458:	0f 1f 84 00 00 00 00 	nopl   0x0(%rax,%rax,1)
  40345f:	00 
  403460:	4c 89 ea             	mov    %r13,%rdx
  403463:	4c 89 f6             	mov    %r14,%rsi
  403466:	44 89 ff             	mov    %r15d,%edi
  403469:	41 ff 14 dc          	callq  *(%r12,%rbx,8)
  40346d:	48 83 c3 01          	add    $0x1,%rbx
  403471:	48 39 eb             	cmp    %rbp,%rbx
  403474:	75 ea                	jne    403460 <__libc_csu_init+0x40>
  403476:	48 83 c4 08          	add    $0x8,%rsp
  40347a:	5b                   	pop    %rbx
  40347b:	5d                   	pop    %rbp
  40347c:	41 5c                	pop    %r12
  40347e:	41 5d                	pop    %r13
  403480:	41 5e                	pop    %r14
  403482:	41 5f                	pop    %r15
  403484:	c3                   	retq   
  403485:	90                   	nop
  403486:	66 2e 0f 1f 84 00 00 	nopw   %cs:0x0(%rax,%rax,1)
  40348d:	00 00 00 

0000000000403490 <__libc_csu_fini>:
  403490:	f3 c3                	repz retq 

Disassembly of section .fini:

0000000000403494 <_fini>:
  403494:	48 83 ec 08          	sub    $0x8,%rsp
  403498:	48 83 c4 08          	add    $0x8,%rsp
  40349c:	c3                   	retq   
